	.file	"<artificial>"
	.text
.Ltext0:
	.p2align 4
	.type	ma_biquad_reinit, @function
ma_biquad_reinit:
.LVL0:
.LFB66:
	.file 1 "/home/user/Documents/_code_/Grume/source/3rd_party/miniaudio.cpp"
	.loc 1 33054 1 view -0
	.cfi_startproc
	.loc 1 33054 1 is_stmt 0 view .LVU1
	pushq	%rbp
	.cfi_def_cfa_offset 16
	.cfi_offset 6, -16
	movq	%rsp, %rbp
	.cfi_def_cfa_register 6
1:	call	mcount
	.loc 1 33054 1 view .LVU2
	.loc 1 33055 5 is_stmt 1 view .LVU3
	.loc 1 33059 5 view .LVU4
	.loc 1 33059 18 is_stmt 0 view .LVU5
	movsd	32(%rdi), %xmm1
	.loc 1 33059 5 view .LVU6
	comisd	.LC0(%rip), %xmm1
	je	.L8
	.loc 1 33064 5 is_stmt 1 view .LVU7
	.loc 1 33064 18 is_stmt 0 view .LVU8
	movl	(%rdi), %eax
	.loc 1 33064 42 view .LVU9
	cmpl	$2, %eax
	je	.L11
	cmpl	$5, %eax
	jne	.L8
.L11:
	.loc 1 33069 5 is_stmt 1 view .LVU10
	.loc 1 33069 14 is_stmt 0 view .LVU11
	movl	(%rsi), %edx
	.loc 1 33069 42 view .LVU12
	testl	%edx, %edx
	je	.L12
	cmpl	%edx, %eax
	jne	.L10
.L12:
	.loc 1 33074 5 is_stmt 1 view .LVU13
	.loc 1 33074 14 is_stmt 0 view .LVU14
	movl	4(%rsi), %edx
	.loc 1 33074 57 view .LVU15
	movl	4(%rdi), %ecx
	.loc 1 33074 5 view .LVU16
	testl	%edx, %edx
	jne	.L23
.L5:
	.loc 1 33079 5 is_stmt 1 view .LVU17
	.loc 1 33080 5 view .LVU18
	.loc 1 33079 19 is_stmt 0 view .LVU19
	movd	%eax, %xmm0
	movd	%ecx, %xmm5
	.loc 1 33085 43 view .LVU20
	movsd	16(%rdi), %xmm4
	.loc 1 33086 43 view .LVU21
	movsd	24(%rdi), %xmm2
	.loc 1 33079 19 view .LVU22
	punpckldq	%xmm5, %xmm0
	.loc 1 33087 43 view .LVU23
	movsd	40(%rdi), %xmm3
	.loc 1 33079 19 view .LVU24
	movq	%xmm0, (%rsi)
	.loc 1 33083 5 is_stmt 1 view .LVU25
	movsd	.LC1(%rip), %xmm0
	divsd	%xmm1, %xmm0
	.loc 1 33084 43 is_stmt 0 view .LVU26
	movsd	8(%rdi), %xmm1
	.loc 1 33085 43 view .LVU27
	mulsd	%xmm0, %xmm4
	.loc 1 33084 43 view .LVU28
	mulsd	%xmm0, %xmm1
	.loc 1 33086 43 view .LVU29
	mulsd	%xmm0, %xmm2
	.loc 1 33087 43 view .LVU30
	mulsd	%xmm0, %xmm3
	.loc 1 33088 43 view .LVU31
	mulsd	48(%rdi), %xmm0
	.loc 1 33084 23 view .LVU32
	unpcklpd	%xmm4, %xmm1
	.loc 1 33083 5 view .LVU33
	cmpl	$5, %eax
	je	.L24
	.loc 1 33090 9 is_stmt 1 view .LVU34
.LVL1:
.LBB80:
.LBI80:
	.loc 1 32906 17 view .LVU35
.LBB81:
	.loc 1 32908 5 view .LVU36
	.loc 1 32908 5 is_stmt 0 view .LVU37
.LBE81:
.LBE80:
	.loc 1 33091 9 is_stmt 1 view .LVU38
	.loc 1 32908 5 view .LVU39
	.loc 1 33092 9 view .LVU40
	.loc 1 32908 5 view .LVU41
	.loc 1 33093 9 view .LVU42
	.loc 1 32908 5 view .LVU43
.LBB85:
.LBB86:
	.loc 1 32908 25 is_stmt 0 view .LVU44
	mulsd	.LC3(%rip), %xmm0
.LBE86:
.LBE85:
.LBB90:
.LBB82:
	movapd	.LC2(%rip), %xmm4
	unpcklpd	%xmm3, %xmm2
.LBE82:
.LBE90:
	.loc 1 33098 1 view .LVU45
	popq	%rbp
	.cfi_remember_state
	.cfi_def_cfa 7, 8
.LBB91:
.LBB83:
	.loc 1 32908 25 view .LVU46
	mulpd	%xmm4, %xmm1
	mulpd	%xmm4, %xmm2
.LBE83:
.LBE91:
.LBB92:
.LBB87:
	.loc 1 32908 61 view .LVU47
	cvttsd2sil	%xmm0, %eax
.LBE87:
.LBE92:
.LBB93:
.LBB84:
	cvttpd2dq	%xmm1, %xmm1
	cvttpd2dq	%xmm2, %xmm2
	punpcklqdq	%xmm2, %xmm1
.LBE84:
.LBE93:
.LBB94:
.LBB88:
	movl	%eax, 24(%rsi)
.LBE88:
.LBE94:
	.loc 1 33097 12 view .LVU48
	xorl	%eax, %eax
	.loc 1 33090 21 view .LVU49
	movups	%xmm1, 8(%rsi)
	.loc 1 33094 9 is_stmt 1 view .LVU50
.LVL2:
.LBB95:
.LBI85:
	.loc 1 32906 17 view .LVU51
.LBB89:
	.loc 1 32908 5 view .LVU52
	.loc 1 32908 5 is_stmt 0 view .LVU53
.LBE89:
.LBE95:
	.loc 1 33098 1 view .LVU54
	ret
	.p2align 4,,10
	.p2align 3
.L23:
	.cfi_restore_state
	.loc 1 33074 28 discriminator 1 view .LVU55
	cmpl	%ecx, %edx
	je	.L5
.L10:
	.loc 1 33070 16 view .LVU56
	movl	$-3, %eax
	.loc 1 33098 1 view .LVU57
	popq	%rbp
	.cfi_remember_state
	.cfi_def_cfa 7, 8
	ret
	.p2align 4,,10
	.p2align 3
.L24:
	.cfi_restore_state
	.loc 1 33084 9 is_stmt 1 view .LVU58
	.loc 1 33085 9 view .LVU59
	.loc 1 33086 9 view .LVU60
	.loc 1 33087 9 view .LVU61
	.loc 1 33084 23 is_stmt 0 view .LVU62
	unpcklpd	%xmm3, %xmm2
	cvtpd2ps	%xmm1, %xmm1
	.loc 1 33097 12 view .LVU63
	xorl	%eax, %eax
	.loc 1 33088 23 view .LVU64
	cvtsd2ss	%xmm0, %xmm0
	.loc 1 33084 23 view .LVU65
	cvtpd2ps	%xmm2, %xmm2
	movlhps	%xmm2, %xmm1
	.loc 1 33088 23 view .LVU66
	movss	%xmm0, 24(%rsi)
	.loc 1 33098 1 view .LVU67
	popq	%rbp
	.cfi_remember_state
	.cfi_def_cfa 7, 8
	.loc 1 33084 21 view .LVU68
	movups	%xmm1, 8(%rsi)
	.loc 1 33088 9 is_stmt 1 view .LVU69
	.loc 1 33098 1 is_stmt 0 view .LVU70
	ret
	.p2align 4,,10
	.p2align 3
.L8:
	.cfi_restore_state
	.loc 1 33060 16 view .LVU71
	movl	$-2, %eax
	.loc 1 33098 1 view .LVU72
	popq	%rbp
	.cfi_def_cfa 7, 8
	ret
	.cfi_endproc
.LFE66:
	.size	ma_biquad_reinit, .-ma_biquad_reinit
	.p2align 4
	.type	_ZL47ma_resampling_backend_get_input_latency__linearPvPKv, @function
_ZL47ma_resampling_backend_get_input_latency__linearPvPKv:
.LVL3:
.LFB67:
	.loc 1 39283 1 is_stmt 1 view -0
	.cfi_startproc
	.loc 1 39283 1 is_stmt 0 view .LVU74
	pushq	%rbp
	.cfi_def_cfa_offset 16
	.cfi_offset 6, -16
	movq	%rsp, %rbp
	.cfi_def_cfa_register 6
1:	call	mcount
	.loc 1 39283 1 view .LVU75
	.loc 1 39284 5 is_stmt 1 view .LVU76
	.loc 1 39286 5 view .LVU77
.LVL4:
.LBB96:
.LBI96:
	.loc 1 39092 18 view .LVU78
.LBB97:
	.loc 1 39094 5 view .LVU79
	testq	%rsi, %rsi
	je	.L27
	.loc 1 39098 5 view .LVU80
.LVL5:
.LBB98:
.LBI98:
	.loc 1 34106 18 view .LVU81
.LBB99:
	.loc 1 34108 5 view .LVU82
	.loc 1 34112 5 view .LVU83
	.loc 1 34112 27 is_stmt 0 view .LVU84
	movl	80(%rsi), %edx
.LBE99:
.LBE98:
	.loc 1 39098 14 view .LVU85
	movl	76(%rsi), %eax
.LBE97:
.LBE96:
	.loc 1 39287 1 view .LVU86
	popq	%rbp
	.cfi_remember_state
	.cfi_def_cfa 7, 8
.LBB102:
.LBB100:
	.loc 1 39098 51 view .LVU87
	leal	1(%rax,%rdx,2), %eax
.LBE100:
.LBE102:
	.loc 1 39287 1 view .LVU88
	ret
	.p2align 4,,10
	.p2align 3
.L27:
	.cfi_restore_state
.LBB103:
.LBB101:
	.loc 1 39095 16 view .LVU89
	xorl	%eax, %eax
.LVL6:
	.loc 1 39095 16 view .LVU90
.LBE101:
.LBE103:
	.loc 1 39287 1 view .LVU91
	popq	%rbp
	.cfi_def_cfa 7, 8
	ret
	.cfi_endproc
.LFE67:
	.size	_ZL47ma_resampling_backend_get_input_latency__linearPvPKv, .-_ZL47ma_resampling_backend_get_input_latency__linearPvPKv
	.p2align 4
	.type	_ZL48ma_resampling_backend_get_output_latency__linearPvPKv, @function
_ZL48ma_resampling_backend_get_output_latency__linearPvPKv:
.LVL7:
.LFB68:
	.loc 1 39290 1 is_stmt 1 view -0
	.cfi_startproc
	.loc 1 39290 1 is_stmt 0 view .LVU93
	pushq	%rbp
	.cfi_def_cfa_offset 16
	.cfi_offset 6, -16
	movq	%rsp, %rbp
	.cfi_def_cfa_register 6
1:	call	mcount
	.loc 1 39290 1 view .LVU94
	.loc 1 39291 5 is_stmt 1 view .LVU95
	.loc 1 39293 5 view .LVU96
.LVL8:
.LBB104:
.LBI104:
	.loc 1 39101 18 view .LVU97
.LBB105:
	.loc 1 39103 5 view .LVU98
	testq	%rsi, %rsi
	je	.L30
	.loc 1 39107 5 view .LVU99
.LVL9:
.LBB106:
.LBI106:
	.loc 1 39092 18 view .LVU100
.LBB107:
	.loc 1 39094 5 view .LVU101
	.loc 1 39098 5 view .LVU102
.LBB108:
.LBI108:
	.loc 1 34106 18 view .LVU103
.LBB109:
	.loc 1 34108 5 view .LVU104
	.loc 1 34112 5 view .LVU105
	.loc 1 34112 27 is_stmt 0 view .LVU106
	movl	80(%rsi), %edx
.LBE109:
.LBE108:
	.loc 1 39098 14 view .LVU107
	movl	76(%rsi), %eax
.LBE107:
.LBE106:
	.loc 1 39107 118 view .LVU108
	movl	8(%rsi), %ecx
.LBE105:
.LBE104:
	.loc 1 39294 1 view .LVU109
	popq	%rbp
	.cfi_remember_state
	.cfi_def_cfa 7, 8
.LBB114:
.LBB112:
.LBB111:
.LBB110:
	.loc 1 39098 51 view .LVU110
	leal	1(%rax,%rdx,2), %eax
.LBE110:
.LBE111:
	.loc 1 39107 83 view .LVU111
	movl	12(%rsi), %edx
	.loc 1 39107 62 view .LVU112
	imulq	%rdx, %rax
	.loc 1 39107 118 view .LVU113
	xorl	%edx, %edx
	divq	%rcx
.LBE112:
.LBE114:
	.loc 1 39294 1 view .LVU114
	ret
	.p2align 4,,10
	.p2align 3
.L30:
	.cfi_restore_state
.LBB115:
.LBB113:
	.loc 1 39104 16 view .LVU115
	xorl	%eax, %eax
.LVL10:
	.loc 1 39104 16 view .LVU116
.LBE113:
.LBE115:
	.loc 1 39294 1 view .LVU117
	popq	%rbp
	.cfi_def_cfa 7, 8
	ret
	.cfi_endproc
.LFE68:
	.size	_ZL48ma_resampling_backend_get_output_latency__linearPvPKv, .-_ZL48ma_resampling_backend_get_output_latency__linearPvPKv
	.p2align 4
	.type	_ZL60ma_resampling_backend_get_required_input_frame_count__linearPvPKvyPy, @function
_ZL60ma_resampling_backend_get_required_input_frame_count__linearPvPKvyPy:
.LVL11:
.LFB69:
	.loc 1 39297 1 is_stmt 1 view -0
	.cfi_startproc
	.loc 1 39297 1 is_stmt 0 view .LVU119
	pushq	%rbp
	.cfi_def_cfa_offset 16
	.cfi_offset 6, -16
	movq	%rsp, %rbp
	.cfi_def_cfa_register 6
1:	call	mcount
	.loc 1 39297 1 view .LVU120
	.loc 1 39298 5 is_stmt 1 view .LVU121
	.loc 1 39300 5 view .LVU122
.LVL12:
.LBB120:
.LBI120:
	.loc 1 39110 18 view .LVU123
.LBB121:
	.loc 1 39112 5 view .LVU124
	.loc 1 39114 5 view .LVU125
	testq	%rcx, %rcx
	je	.L34
	.loc 1 39118 5 view .LVU126
	.loc 1 39118 23 is_stmt 0 view .LVU127
	movq	$0, (%rcx)
	.loc 1 39120 5 is_stmt 1 view .LVU128
	testq	%rsi, %rsi
	je	.L34
	.loc 1 39124 5 view .LVU129
	.loc 1 39125 16 is_stmt 0 view .LVU130
	xorl	%r8d, %r8d
	.loc 1 39124 5 view .LVU131
	testq	%rdx, %rdx
	je	.L31
.LVL13:
.LBB122:
.LBI122:
	.loc 1 39110 18 is_stmt 1 view .LVU132
.LBB123:
	.loc 1 39129 5 view .LVU133
	.loc 1 39133 55 is_stmt 0 view .LVU134
	movl	32(%rsi), %eax
	.loc 1 39130 22 view .LVU135
	subq	$1, %rdx
.LVL14:
	.loc 1 39129 21 view .LVU136
	movl	40(%rsi), %edi
.LVL15:
	.loc 1 39130 5 is_stmt 1 view .LVU137
	.loc 1 39133 5 view .LVU138
	.loc 1 39133 41 is_stmt 0 view .LVU139
	imulq	%rdx, %rax
	.loc 1 39133 21 view .LVU140
	addq	%rax, %rdi
.LVL16:
	.loc 1 39134 5 is_stmt 1 view .LVU141
	.loc 1 39136 5 view .LVU142
	.loc 1 39134 82 is_stmt 0 view .LVU143
	movl	36(%rsi), %eax
.LVL17:
	.loc 1 39134 68 view .LVU144
	imulq	%rdx, %rax
.LVL18:
	.loc 1 39134 37 view .LVU145
	movl	44(%rsi), %edx
.LVL19:
	.loc 1 39134 119 view .LVU146
	movl	12(%rsi), %esi
.LVL20:
	.loc 1 39134 48 view .LVU147
	addq	%rdx, %rax
	.loc 1 39134 98 view .LVU148
	xorl	%edx, %edx
.LVL21:
	.loc 1 39134 98 view .LVU149
	divq	%rsi
	.loc 1 39134 21 view .LVU150
	addq	%rdi, %rax
	movq	%rax, (%rcx)
	.loc 1 39138 5 is_stmt 1 view .LVU151
.LVL22:
.L31:
	.loc 1 39138 5 is_stmt 0 view .LVU152
.LBE123:
.LBE122:
.LBE121:
.LBE120:
	.loc 1 39301 1 view .LVU153
	movl	%r8d, %eax
	popq	%rbp
	.cfi_remember_state
	.cfi_def_cfa 7, 8
	ret
.LVL23:
.L34:
	.cfi_restore_state
.LBB125:
.LBB124:
	.loc 1 39115 16 view .LVU154
	movl	$-2, %r8d
	jmp	.L31
.LBE124:
.LBE125:
	.cfi_endproc
.LFE69:
	.size	_ZL60ma_resampling_backend_get_required_input_frame_count__linearPvPKvyPy, .-_ZL60ma_resampling_backend_get_required_input_frame_count__linearPvPKvyPy
	.p2align 4
	.type	_ZL61ma_resampling_backend_get_expected_output_frame_count__linearPvPKvyPy, @function
_ZL61ma_resampling_backend_get_expected_output_frame_count__linearPvPKvyPy:
.LVL24:
.LFB71:
	.loc 1 39304 1 is_stmt 1 view -0
	.cfi_startproc
	.loc 1 39304 1 is_stmt 0 view .LVU156
	pushq	%rbp
	.cfi_def_cfa_offset 16
	.cfi_offset 6, -16
	movq	%rsp, %rbp
	.cfi_def_cfa_register 6
1:	call	mcount
	.loc 1 39304 1 view .LVU157
	.loc 1 39305 5 is_stmt 1 view .LVU158
	.loc 1 39307 5 view .LVU159
.LVL25:
.LBB126:
.LBI126:
	.loc 1 39141 18 view .LVU160
.LBB127:
	.loc 1 39143 5 view .LVU161
	.loc 1 39144 5 view .LVU162
	.loc 1 39145 5 view .LVU163
	.loc 1 39147 5 view .LVU164
.LBE127:
.LBE126:
	.loc 1 39304 1 is_stmt 0 view .LVU165
	movq	%rdx, %r8
	movq	%rcx, %rdi
.LVL26:
.LBB131:
.LBB128:
	.loc 1 39147 5 view .LVU166
	testq	%rcx, %rcx
	je	.L43
	.loc 1 39151 5 is_stmt 1 view .LVU167
	.loc 1 39151 24 is_stmt 0 view .LVU168
	movq	$0, (%rcx)
	.loc 1 39153 5 is_stmt 1 view .LVU169
	testq	%rsi, %rsi
	je	.L43
	.loc 1 39163 5 view .LVU170
	.loc 1 39163 62 is_stmt 0 view .LVU171
	movl	12(%rsi), %r9d
	.loc 1 39163 41 view .LVU172
	movq	%rdx, %rax
	.loc 1 39163 98 view .LVU173
	movl	8(%rsi), %r10d
	.loc 1 39163 22 view .LVU174
	xorl	%edx, %edx
.LVL27:
	.loc 1 39163 22 view .LVU175
.LBE128:
.LBE131:
	.loc 1 39308 1 view .LVU176
	popq	%rbp
	.cfi_remember_state
	.cfi_def_cfa 7, 8
.LBB132:
.LBB129:
	.loc 1 39163 41 view .LVU177
	imulq	%r9, %rax
.LVL28:
	.loc 1 39163 22 view .LVU178
	divq	%r10
	.loc 1 39169 55 view .LVU179
	movl	44(%rsi), %edx
	.loc 1 39163 22 view .LVU180
	movq	%rax, %rcx
.LVL29:
	.loc 1 39169 5 is_stmt 1 view .LVU181
	.loc 1 39170 5 view .LVU182
	.loc 1 39177 5 view .LVU183
	.loc 1 39169 97 is_stmt 0 view .LVU184
	movl	36(%rsi), %eax
.LVL30:
	.loc 1 39169 84 view .LVU185
	imulq	%rcx, %rax
.LVL31:
	.loc 1 39169 66 view .LVU186
	addq	%rdx, %rax
.LVL32:
	.loc 1 39169 40 view .LVU187
	xorl	%edx, %edx
.LVL33:
	.loc 1 39169 40 view .LVU188
	divq	%r9
	.loc 1 39170 97 view .LVU189
	movl	32(%rsi), %edx
	.loc 1 39170 55 view .LVU190
	movl	40(%rsi), %esi
.LVL34:
	.loc 1 39170 84 view .LVU191
	imulq	%rcx, %rdx
.LVL35:
	.loc 1 39170 66 view .LVU192
	addq	%rsi, %rdx
	.loc 1 39170 40 view .LVU193
	addq	%rdx, %rax
	.loc 1 39178 26 view .LVU194
	cmpq	%rax, %r8
	sbbq	$-1, %rcx
.LVL36:
	.loc 1 39181 5 is_stmt 1 view .LVU195
	.loc 1 39183 12 is_stmt 0 view .LVU196
	xorl	%eax, %eax
	.loc 1 39181 24 view .LVU197
	movq	%rcx, (%rdi)
	.loc 1 39183 5 is_stmt 1 view .LVU198
.LVL37:
	.loc 1 39183 5 is_stmt 0 view .LVU199
.LBE129:
.LBE132:
	.loc 1 39308 1 view .LVU200
	ret
.LVL38:
.L43:
	.cfi_restore_state
.LBB133:
.LBB130:
	.loc 1 39148 16 view .LVU201
	movl	$-2, %eax
.LBE130:
.LBE133:
	.loc 1 39308 1 view .LVU202
	popq	%rbp
	.cfi_def_cfa 7, 8
	ret
	.cfi_endproc
.LFE71:
	.size	_ZL61ma_resampling_backend_get_expected_output_frame_count__linearPvPKvyPy, .-_ZL61ma_resampling_backend_get_expected_output_frame_count__linearPvPKvyPy
	.p2align 4
	.type	_ZL35ma_resampling_backend_reset__linearPvS_, @function
_ZL35ma_resampling_backend_reset__linearPvS_:
.LVL39:
.LFB72:
	.loc 1 39311 1 is_stmt 1 view -0
	.cfi_startproc
	.loc 1 39311 1 is_stmt 0 view .LVU204
	pushq	%rbp
	.cfi_def_cfa_offset 16
	.cfi_offset 6, -16
	movq	%rsp, %rbp
	.cfi_def_cfa_register 6
	pushq	%r13
	pushq	%r12
	pushq	%rbx
	subq	$8, %rsp
	.cfi_offset 13, -24
	.cfi_offset 12, -32
	.cfi_offset 3, -40
1:	call	mcount
	.loc 1 39311 1 view .LVU205
	.loc 1 39312 5 is_stmt 1 view .LVU206
	.loc 1 39314 5 view .LVU207
.LVL40:
.LBB148:
.LBI148:
	.loc 1 39186 18 view .LVU208
.LBB149:
	.loc 1 39188 5 view .LVU209
	.loc 1 39190 5 view .LVU210
.LBE149:
.LBE148:
	.loc 1 39311 1 is_stmt 0 view .LVU211
	movq	%rsi, %rbx
.LBB176:
.LBB174:
	.loc 1 39190 5 view .LVU212
	testq	%rsi, %rsi
	je	.L69
	.loc 1 39195 5 is_stmt 1 view .LVU213
	.loc 1 39196 5 view .LVU214
	.loc 1 39195 28 is_stmt 0 view .LVU215
	movq	.LC4(%rip), %rax
	.loc 1 39199 5 view .LVU216
	cmpl	$5, (%rsi)
	.loc 1 39195 28 view .LVU217
	movq	%rax, 40(%rsi)
	.loc 1 39199 5 is_stmt 1 view .LVU218
	.loc 1 39200 58 is_stmt 0 view .LVU219
	movl	4(%rsi), %eax
	.loc 1 39199 5 view .LVU220
	je	.L87
.LVL41:
	.loc 1 39205 37 is_stmt 1 view .LVU221
	testl	%eax, %eax
	je	.L56
	.loc 1 39206 28 is_stmt 0 view .LVU222
	movq	48(%rsi), %rdi
.LVL42:
	.loc 1 39206 28 view .LVU223
	leaq	(%rax,%rax), %r13
	.loc 1 39207 28 view .LVU224
	movq	56(%rsi), %r12
	leaq	(%rdi,%r13), %rdx
	cmpq	%rdx, %r12
	jnb	.L73
	leaq	(%r12,%r13), %rdx
	cmpq	%rdx, %rdi
	jb	.L71
.L73:
	.loc 1 39206 42 view .LVU225
	movq	%r13, %rdx
	xorl	%esi, %esi
.LVL43:
	.loc 1 39206 42 view .LVU226
	call	memset
.LVL44:
	.loc 1 39207 42 view .LVU227
	movq	%r13, %rdx
	xorl	%esi, %esi
	movq	%r12, %rdi
	call	memset
.LVL45:
.L56:
.LBB150:
.LBB151:
.LBB152:
.LBB153:
	.loc 1 34001 35 view .LVU228
	movl	76(%rbx), %edx
	.loc 1 34001 27 view .LVU229
	testl	%edx, %edx
	je	.L52
	movq	88(%rbx), %rax
	subl	$1, %edx
	leaq	(%rdx,%rdx,4), %rcx
	leaq	40(%rax), %rdx
	leaq	(%rdx,%rcx,8), %rcx
	jmp	.L64
.LVL46:
	.p2align 4,,10
	.p2align 3
.L63:
.LBB154:
.LBB155:
	.loc 1 33427 21 view .LVU230
	movl	$0, 8(%rax)
.L62:
.LVL47:
	.loc 1 33427 21 view .LVU231
.LBE155:
.LBE154:
	.loc 1 34001 27 view .LVU232
	movq	%rdx, %rax
	cmpq	%rcx, %rdx
	je	.L52
.L88:
	addq	$40, %rdx
.L64:
.LVL48:
.LBB157:
.LBB156:
	.loc 1 33420 5 view .LVU233
	testq	%rax, %rax
	je	.L62
	.loc 1 33424 5 view .LVU234
	cmpl	$5, (%rax)
	jne	.L63
	.loc 1 33425 21 view .LVU235
	movl	$0x00000000, 8(%rax)
.LVL49:
	.loc 1 33425 21 view .LVU236
.LBE156:
.LBE157:
	.loc 1 34001 27 view .LVU237
	movq	%rdx, %rax
	cmpq	%rcx, %rdx
	jne	.L88
.L52:
.LVL50:
	.loc 1 34005 35 view .LVU238
	movl	80(%rbx), %edx
	.loc 1 34005 27 view .LVU239
	testl	%edx, %edx
	je	.L67
	movq	96(%rbx), %rax
	leal	-1(%rdx), %edi
	salq	$6, %rdi
	leaq	64(%rax), %rdx
	addq	%rdx, %rdi
	jmp	.L68
.LVL51:
	.p2align 4,,10
	.p2align 3
.L66:
.LBB158:
.LBB159:
.LBB160:
.LBB161:
	.loc 1 33110 23 view .LVU240
	movl	$0, (%rsi)
	.loc 1 33111 23 view .LVU241
	movl	$0, (%rcx)
.LVL52:
.L65:
	.loc 1 33111 23 view .LVU242
.LBE161:
.LBE160:
.LBE159:
.LBE158:
	.loc 1 34005 27 view .LVU243
	movq	%rdx, %rax
	cmpq	%rdi, %rdx
	je	.L67
.LVL53:
.L89:
	.loc 1 34005 27 view .LVU244
	addq	$64, %rdx
.L68:
.LVL54:
.LBB172:
.LBB170:
	.loc 1 33640 5 view .LVU245
	testq	%rax, %rax
	je	.L65
.LVL55:
.LBB168:
.LBI160:
	.loc 1 33100 18 is_stmt 1 view .LVU246
.LBB166:
	.loc 1 33106 5 is_stmt 0 view .LVU247
	cmpl	$5, (%rax)
	movq	32(%rax), %rsi
	movq	40(%rax), %rcx
	jne	.L66
.LBB162:
.LBI162:
	.loc 1 33100 18 is_stmt 1 view .LVU248
.LVL56:
.LBB163:
	.loc 1 33107 23 is_stmt 0 view .LVU249
	movl	$0x00000000, (%rsi)
.LBE163:
.LBE162:
.LBE166:
.LBE168:
.LBE170:
.LBE172:
	.loc 1 34005 27 view .LVU250
	movq	%rdx, %rax
.LVL57:
.LBB173:
.LBB171:
.LBB169:
.LBB167:
.LBB165:
.LBB164:
	.loc 1 33108 23 view .LVU251
	movl	$0x00000000, (%rcx)
.LVL58:
	.loc 1 33108 23 view .LVU252
.LBE164:
.LBE165:
.LBE167:
.LBE169:
.LBE171:
.LBE173:
	.loc 1 34005 27 view .LVU253
	cmpq	%rdi, %rdx
	jne	.L89
.LVL59:
.L67:
	.loc 1 34005 27 view .LVU254
.LBE153:
.LBE152:
.LBE151:
.LBE150:
	.loc 1 39214 12 view .LVU255
	xorl	%eax, %eax
.LVL60:
.L48:
	.loc 1 39214 12 view .LVU256
.LBE174:
.LBE176:
	.loc 1 39315 1 view .LVU257
	addq	$8, %rsp
	popq	%rbx
.LVL61:
	.loc 1 39315 1 view .LVU258
	popq	%r12
	popq	%r13
	popq	%rbp
	.cfi_remember_state
	.cfi_def_cfa 7, 8
	ret
.LVL62:
	.p2align 4,,10
	.p2align 3
.L87:
	.cfi_restore_state
.LBB177:
.LBB175:
	.loc 1 39200 37 is_stmt 1 view .LVU259
	testl	%eax, %eax
	je	.L56
	.loc 1 39202 28 is_stmt 0 view .LVU260
	movq	56(%rsi), %r12
	leaq	0(,%rax,4), %r13
	.loc 1 39201 28 view .LVU261
	movq	48(%rsi), %rdi
.LVL63:
	.loc 1 39201 28 view .LVU262
	leaq	(%r12,%r13), %rdx
	cmpq	%rdx, %rdi
	jnb	.L73
	leaq	(%rdi,%r13), %rdx
	cmpq	%rdx, %r12
	jnb	.L73
	.loc 1 39202 28 view .LVU263
	xorl	%edx, %edx
.LVL64:
	.p2align 4,,10
	.p2align 3
.L54:
	.loc 1 39201 13 is_stmt 1 view .LVU264
	.loc 1 39201 42 is_stmt 0 view .LVU265
	movl	$0x00000000, (%rdi,%rdx,4)
	.loc 1 39202 13 is_stmt 1 view .LVU266
	.loc 1 39202 42 is_stmt 0 view .LVU267
	movl	$0x00000000, (%r12,%rdx,4)
	.loc 1 39200 9 is_stmt 1 view .LVU268
.LVL65:
	.loc 1 39200 37 view .LVU269
	addq	$1, %rdx
.LVL66:
	.loc 1 39200 37 is_stmt 0 view .LVU270
	cmpq	%rdx, %rax
	jne	.L54
	jmp	.L56
.LVL67:
.L71:
	.loc 1 39207 28 view .LVU271
	xorl	%edx, %edx
.LVL68:
	.p2align 4,,10
	.p2align 3
.L58:
	.loc 1 39206 13 is_stmt 1 view .LVU272
	.loc 1 39206 42 is_stmt 0 view .LVU273
	xorl	%ecx, %ecx
	.loc 1 39207 42 view .LVU274
	xorl	%esi, %esi
	.loc 1 39206 42 view .LVU275
	movw	%cx, (%rdi,%rdx,2)
	.loc 1 39207 13 is_stmt 1 view .LVU276
	.loc 1 39207 42 is_stmt 0 view .LVU277
	movw	%si, (%r12,%rdx,2)
	.loc 1 39205 9 is_stmt 1 view .LVU278
.LVL69:
	.loc 1 39205 37 view .LVU279
	addq	$1, %rdx
.LVL70:
	.loc 1 39205 37 is_stmt 0 view .LVU280
	cmpq	%rdx, %rax
	jne	.L58
	jmp	.L56
.LVL71:
.L69:
	.loc 1 39191 16 view .LVU281
	movl	$-2, %eax
.LVL72:
	.loc 1 39191 16 view .LVU282
.LBE175:
.LBE177:
	.loc 1 39314 68 view .LVU283
	jmp	.L48
	.cfi_endproc
.LFE72:
	.size	_ZL35ma_resampling_backend_reset__linearPvS_, .-_ZL35ma_resampling_backend_reset__linearPvS_
	.p2align 4
	.type	_ZL48ma_calculate_channel_position_rectangular_weighthh, @function
_ZL48ma_calculate_channel_position_rectangular_weighthh:
.LVL73:
.LFB74:
	.loc 1 39715 1 is_stmt 1 view -0
	.cfi_startproc
	.loc 1 39715 1 is_stmt 0 view .LVU285
	pushq	%rbp
	.cfi_def_cfa_offset 16
	.cfi_offset 6, -16
	movq	%rsp, %rbp
	.cfi_def_cfa_register 6
1:	call	mcount
	.loc 1 39715 1 view .LVU286
	.loc 1 39746 5 is_stmt 1 view .LVU287
.LVL74:
	.loc 1 39754 5 view .LVU288
	.loc 1 39755 1 is_stmt 0 view .LVU289
	popq	%rbp
	.cfi_def_cfa 7, 8
	.loc 1 39747 51 view .LVU290
	movzbl	%dil, %edi
.LVL75:
	.loc 1 39747 97 view .LVU291
	movzbl	%sil, %esi
.LVL76:
	.loc 1 39747 51 view .LVU292
	leaq	(%rdi,%rdi,2), %rax
	.loc 1 39747 97 view .LVU293
	leaq	(%rsi,%rsi,2), %rdx
	.loc 1 39747 51 view .LVU294
	salq	$3, %rax
	.loc 1 39747 97 view .LVU295
	salq	$3, %rdx
	.loc 1 39747 53 view .LVU296
	movss	_ZL22g_maChannelPlaneRatios.lto_priv.0(%rax), %xmm0
	.loc 1 39748 53 view .LVU297
	movss	_ZL22g_maChannelPlaneRatios.lto_priv.0+4(%rax), %xmm1
	.loc 1 39747 53 view .LVU298
	mulss	_ZL22g_maChannelPlaneRatios.lto_priv.0(%rdx), %xmm0
	.loc 1 39750 53 view .LVU299
	movss	_ZL22g_maChannelPlaneRatios.lto_priv.0+12(%rax), %xmm2
	.loc 1 39748 53 view .LVU300
	mulss	_ZL22g_maChannelPlaneRatios.lto_priv.0+4(%rdx), %xmm1
	.loc 1 39750 53 view .LVU301
	mulss	_ZL22g_maChannelPlaneRatios.lto_priv.0+12(%rdx), %xmm2
	.loc 1 39746 11 view .LVU302
	addss	%xmm1, %xmm0
	.loc 1 39749 53 view .LVU303
	movss	_ZL22g_maChannelPlaneRatios.lto_priv.0+8(%rax), %xmm1
	mulss	_ZL22g_maChannelPlaneRatios.lto_priv.0+8(%rdx), %xmm1
	.loc 1 39746 11 view .LVU304
	addss	%xmm2, %xmm1
	.loc 1 39751 53 view .LVU305
	movss	_ZL22g_maChannelPlaneRatios.lto_priv.0+16(%rdx), %xmm2
	.loc 1 39746 11 view .LVU306
	addss	%xmm1, %xmm0
	.loc 1 39751 53 view .LVU307
	movss	_ZL22g_maChannelPlaneRatios.lto_priv.0+16(%rax), %xmm1
	mulss	%xmm1, %xmm2
	.loc 1 39752 53 view .LVU308
	movss	_ZL22g_maChannelPlaneRatios.lto_priv.0+20(%rax), %xmm1
	mulss	_ZL22g_maChannelPlaneRatios.lto_priv.0+20(%rdx), %xmm1
	.loc 1 39746 11 view .LVU309
	addss	%xmm2, %xmm1
	addss	%xmm1, %xmm0
	.loc 1 39755 1 view .LVU310
	ret
	.cfi_endproc
.LFE74:
	.size	_ZL48ma_calculate_channel_position_rectangular_weighthh, .-_ZL48ma_calculate_channel_position_rectangular_weighthh
	.section	.rodata.str1.1,"aMS",@progbits,1
.LC6:
	.string	"miniaudio"
	.section	.rodata.str1.8,"aMS",@progbits,1
	.align 8
.LC7:
	.string	"ma_result ma_context_open_client__jack(ma_context*, ma_jack_client_t**)"
	.align 8
.LC8:
	.string	"/home/user/Documents/_code_/Grume/source/3rd_party/miniaudio.cpp"
	.section	.rodata.str1.1
.LC9:
	.string	"pContext != __null"
	.text
	.p2align 4
	.type	_ZL28ma_context_open_client__jackP10ma_contextPP16ma_jack_client_t, @function
_ZL28ma_context_open_client__jackP10ma_contextPP16ma_jack_client_t:
.LVL77:
.LFB76:
	.loc 1 18993 1 is_stmt 1 view -0
	.cfi_startproc
	.loc 1 18993 1 is_stmt 0 view .LVU312
	pushq	%rbp
	.cfi_def_cfa_offset 16
	.cfi_offset 6, -16
	movq	%rsp, %rbp
	.cfi_def_cfa_register 6
	pushq	%r12
	pushq	%rbx
	subq	$272, %rsp
	.cfi_offset 12, -24
	.cfi_offset 3, -32
1:	call	mcount
	.loc 1 18993 1 view .LVU313
	.loc 1 18994 5 is_stmt 1 view .LVU314
	.loc 1 18995 5 view .LVU315
	.loc 1 18996 5 view .LVU316
	.loc 1 18997 5 view .LVU317
	.loc 1 18999 5 view .LVU318
	.loc 1 18993 1 is_stmt 0 view .LVU319
	movq	%rdi, %r12
	movq	%rsi, %rbx
	.loc 1 18999 5 view .LVU320
	testq	%rdi, %rdi
	je	.L109
	.loc 1 19000 5 is_stmt 1 view .LVU321
	.loc 1 19002 5 view .LVU322
	.loc 1 19003 9 view .LVU323
	.loc 1 19003 19 is_stmt 0 view .LVU324
	movq	$0, (%rsi)
	.loc 1 19006 5 is_stmt 1 view .LVU325
	.loc 1 19006 94 is_stmt 0 view .LVU326
	call	*448(%rdi)
.LVL78:
	.loc 1 19007 93 view .LVU327
	movq	560(%r12), %r8
	.loc 1 19006 94 view .LVU328
	movslq	%eax, %rsi
.LVL79:
	.loc 1 19007 5 is_stmt 1 view .LVU329
	.loc 1 19007 17 is_stmt 0 view .LVU330
	movl	$.LC6, %eax
	testq	%r8, %r8
	cmove	%rax, %r8
.LVL80:
.LBB182:
.LBI182:
	.loc 1 976 12 is_stmt 1 view .LVU331
.LBB183:
	.loc 1 978 5 view .LVU332
	.loc 1 979 5 view .LVU333
	.loc 1 981 5 view .LVU334
	.loc 1 984 5 view .LVU335
	testl	%esi, %esi
	je	.L98
.LVL81:
.LBB184:
.LBI184:
	.loc 1 976 12 view .LVU336
	.loc 1 976 12 is_stmt 0 view .LVU337
.LBE184:
.LBE183:
.LBE182:
	.loc 1 19007 30 view .LVU338
	cmpq	$256, %rsi
	movl	$256, %eax
	cmova	%rax, %rsi
.LVL82:
.LBB191:
.LBB189:
.LBB187:
.LBB185:
	.loc 1 997 30 view .LVU339
	subq	$1, %rsi
.LVL83:
	.loc 1 997 30 view .LVU340
	je	.L100
	leaq	-272(%rbp), %rdx
.LVL84:
	.loc 1 997 12 view .LVU341
	xorl	%eax, %eax
	jmp	.L96
.LVL85:
	.p2align 4,,10
	.p2align 3
.L111:
	.loc 1 997 5 view .LVU342
	addq	$1, %rax
.LVL86:
	.loc 1 998 16 view .LVU343
	movb	%cl, (%rdx)
	.loc 1 997 30 view .LVU344
	leaq	1(%rdx), %rdx
	cmpq	%rax, %rsi
	je	.L110
.LVL87:
.L96:
	.loc 1 997 38 view .LVU345
	movzbl	(%r8,%rax), %ecx
	.loc 1 998 14 view .LVU346
	movq	%rdx, %rdi
	.loc 1 997 30 view .LVU347
	testb	%cl, %cl
	jne	.L111
.LVL88:
.L95:
	.loc 1 1002 16 view .LVU348
	movb	$0, (%rdi)
.LVL89:
.L98:
	.loc 1 1002 16 view .LVU349
.LBE185:
.LBE187:
.LBE189:
.LBE191:
	.loc 1 19009 5 is_stmt 1 view .LVU350
	.loc 1 19009 119 is_stmt 0 view .LVU351
	xorl	%esi, %esi
	movl	568(%r12), %eax
	.loc 1 19009 74 view .LVU352
	leaq	-276(%rbp), %rdx
	leaq	-272(%rbp), %rdi
	.loc 1 19009 119 view .LVU353
	testl	%eax, %eax
	sete	%sil
	.loc 1 19009 74 view .LVU354
	xorl	%ecx, %ecx
	xorl	%eax, %eax
	call	*432(%r12)
.LVL90:
	.loc 1 19010 5 is_stmt 1 view .LVU355
	testq	%rax, %rax
	je	.L101
	.loc 1 19014 5 view .LVU356
	.loc 1 19015 9 view .LVU357
	.loc 1 19015 19 is_stmt 0 view .LVU358
	movq	%rax, (%rbx)
	.loc 1 19018 5 is_stmt 1 view .LVU359
	.loc 1 19018 12 is_stmt 0 view .LVU360
	xorl	%eax, %eax
.LVL91:
.L91:
	.loc 1 19019 1 view .LVU361
	addq	$272, %rsp
	popq	%rbx
.LVL92:
	.loc 1 19019 1 view .LVU362
	popq	%r12
.LVL93:
	.loc 1 19019 1 view .LVU363
	popq	%rbp
	.cfi_remember_state
	.cfi_def_cfa 7, 8
	ret
.LVL94:
	.p2align 4,,10
	.p2align 3
.L110:
	.cfi_restore_state
.LBB192:
.LBB190:
.LBB188:
.LBB186:
	.loc 1 1002 14 view .LVU364
	leaq	-272(%rbp), %rax
.LVL95:
	.loc 1 1002 14 view .LVU365
	leaq	(%rax,%rsi), %rdi
	jmp	.L95
.LVL96:
.L100:
	.loc 1 997 30 view .LVU366
	leaq	-272(%rbp), %rdi
.LVL97:
	.loc 1 997 30 view .LVU367
	jmp	.L95
.LVL98:
.L101:
	.loc 1 997 30 view .LVU368
.LBE186:
.LBE188:
.LBE190:
.LBE192:
	.loc 1 19011 16 view .LVU369
	movl	$-301, %eax
.LVL99:
	.loc 1 19011 16 view .LVU370
	jmp	.L91
.LVL100:
.L109:
	.loc 1 18999 5 discriminator 1 view .LVU371
	movl	$.LC7, %ecx
	movl	$18999, %edx
	movl	$.LC8, %esi
	movl	$.LC9, %edi
.LVL101:
	.loc 1 18999 5 discriminator 1 view .LVU372
	call	__assert_fail
.LVL102:
	.cfi_endproc
.LFE76:
	.size	_ZL28ma_context_open_client__jackP10ma_contextPP16ma_jack_client_t, .-_ZL28ma_context_open_client__jackP10ma_contextPP16ma_jack_client_t
	.section	.rodata.str1.8
	.align 8
.LC10:
	.string	"ma_result ma_context_enumerate_devices__jack(ma_context*, ma_enum_devices_callback_proc, void*)"
	.section	.rodata.str1.1
.LC11:
	.string	"callback != __null"
.LC12:
	.string	"Default Playback Device"
.LC13:
	.string	"Default Capture Device"
	.text
	.p2align 4
	.type	_ZL34ma_context_enumerate_devices__jackP10ma_contextPFjS0_14ma_device_typePK14ma_device_infoPvES5_, @function
_ZL34ma_context_enumerate_devices__jackP10ma_contextPFjS0_14ma_device_typePK14ma_device_infoPvES5_:
.LVL103:
.LFB77:
	.loc 1 19023 1 is_stmt 1 view -0
	.cfi_startproc
	.loc 1 19023 1 is_stmt 0 view .LVU374
	pushq	%rbp
	.cfi_def_cfa_offset 16
	.cfi_offset 6, -16
	movq	%rsp, %rbp
	.cfi_def_cfa_register 6
	pushq	%r14
	pushq	%r13
	pushq	%r12
	pushq	%rbx
	subq	$1552, %rsp
	.cfi_offset 14, -24
	.cfi_offset 13, -32
	.cfi_offset 12, -40
	.cfi_offset 3, -48
1:	call	mcount
	.loc 1 19023 1 view .LVU375
	.loc 1 19024 5 is_stmt 1 view .LVU376
.LVL104:
	.loc 1 19026 5 view .LVU377
	.loc 1 19023 1 is_stmt 0 view .LVU378
	movq	%rdi, %r12
	movq	%rsi, %rbx
	movq	%rdx, %r13
	.loc 1 19026 5 view .LVU379
	testq	%rdi, %rdi
	je	.L127
	.loc 1 19027 5 is_stmt 1 view .LVU380
	testq	%rsi, %rsi
	je	.L128
	.loc 1 19030 5 view .LVU381
.LBB208:
	.loc 1 19031 9 view .LVU382
	.loc 1 19032 9 view .LVU383
.LVL105:
.LBB209:
.LBI209:
	.loc 1 776 23 view .LVU384
.LBB210:
	.loc 1 781 5 view .LVU385
	.loc 1 782 9 view .LVU386
	.loc 1 782 15 is_stmt 0 view .LVU387
	leaq	-1584(%rbp), %r14
.LVL106:
	.loc 1 782 15 view .LVU388
	movl	$193, %ecx
	xorl	%eax, %eax
.LBE210:
.LBE209:
.LBB212:
.LBB213:
.LBB214:
.LBB215:
	.loc 1 997 38 view .LVU389
	movl	$68, %edx
.LVL107:
	.loc 1 997 38 view .LVU390
.LBE215:
.LBE214:
.LBE213:
.LBE212:
.LBB222:
.LBB211:
	.loc 1 782 15 view .LVU391
	movq	%r14, %rdi
.LVL108:
	.loc 1 782 15 view .LVU392
	rep stosq
.LVL109:
	.loc 1 782 15 view .LVU393
.LBE211:
.LBE222:
	.loc 1 19033 9 is_stmt 1 view .LVU394
.LBB223:
.LBI212:
	.loc 1 976 12 view .LVU395
.LBB220:
	.loc 1 978 5 view .LVU396
	.loc 1 979 5 view .LVU397
	.loc 1 981 5 view .LVU398
	.loc 1 984 5 view .LVU399
	.loc 1 987 5 view .LVU400
.LBB218:
.LBI214:
	.loc 1 976 12 view .LVU401
	.loc 1 976 12 is_stmt 0 view .LVU402
	jmp	.L115
.LVL110:
	.p2align 4,,10
	.p2align 3
.L117:
.LBB216:
	.loc 1 997 38 view .LVU403
	movzbl	.LC12(%rax), %edx
	.loc 1 997 30 view .LVU404
	testb	%dl, %dl
	je	.L129
.LVL111:
.L115:
	.loc 1 998 16 view .LVU405
	movb	%dl, -1328(%rbp,%rax)
	.loc 1 997 5 view .LVU406
	addq	$1, %rax
.LVL112:
	.loc 1 997 30 view .LVU407
	cmpq	$255, %rax
	jne	.L117
	leaq	-1073(%rbp), %rax
.LVL113:
.L116:
	.loc 1 1002 16 view .LVU408
	movb	$0, (%rax)
.LVL114:
	.loc 1 1002 16 view .LVU409
.LBE216:
.LBE218:
.LBE220:
.LBE223:
	.loc 1 19034 9 is_stmt 1 view .LVU410
	.loc 1 19035 28 is_stmt 0 view .LVU411
	movq	%r13, %rcx
	movq	%r14, %rdx
	movl	$1, %esi
.LVL115:
	.loc 1 19034 30 view .LVU412
	movl	$1, -1072(%rbp)
	.loc 1 19035 9 is_stmt 1 view .LVU413
	.loc 1 19035 28 is_stmt 0 view .LVU414
	movq	%r12, %rdi
	call	*%rbx
.LVL116:
	.loc 1 19035 28 view .LVU415
.LBE208:
	.loc 1 19039 5 is_stmt 1 view .LVU416
.LBB225:
	testl	%eax, %eax
	jne	.L130
.LVL117:
.L118:
	.loc 1 19039 5 is_stmt 0 view .LVU417
.LBE225:
	.loc 1 19047 5 is_stmt 1 view .LVU418
	.loc 1 19049 5 view .LVU419
	.loc 1 19050 1 is_stmt 0 view .LVU420
	addq	$1552, %rsp
	xorl	%eax, %eax
	popq	%rbx
.LVL118:
	.loc 1 19050 1 view .LVU421
	popq	%r12
.LVL119:
	.loc 1 19050 1 view .LVU422
	popq	%r13
.LVL120:
	.loc 1 19050 1 view .LVU423
	popq	%r14
	popq	%rbp
	.cfi_remember_state
	.cfi_def_cfa 7, 8
	ret
.LVL121:
	.p2align 4,,10
	.p2align 3
.L129:
	.cfi_restore_state
.LBB244:
.LBB224:
.LBB221:
.LBB219:
.LBB217:
	.loc 1 1002 14 view .LVU424
	leaq	-1328(%rbp), %rcx
.LVL122:
	.loc 1 1002 14 view .LVU425
	addq	%rcx, %rax
.LVL123:
	.loc 1 1002 14 view .LVU426
	jmp	.L116
.LVL124:
	.p2align 4,,10
	.p2align 3
.L130:
	.loc 1 1002 14 view .LVU427
.LBE217:
.LBE219:
.LBE221:
.LBE224:
.LBE244:
.LBB245:
.LBB226:
	.loc 1 19040 9 is_stmt 1 view .LVU428
	.loc 1 19041 9 view .LVU429
.LBB227:
.LBI227:
	.loc 1 776 23 view .LVU430
.LBB228:
	.loc 1 781 5 view .LVU431
	.loc 1 782 9 view .LVU432
	.loc 1 782 15 is_stmt 0 view .LVU433
	movl	$193, %ecx
	xorl	%eax, %eax
.LVL125:
	.loc 1 782 15 view .LVU434
	movq	%r14, %rdi
.LBE228:
.LBE227:
.LBB230:
.LBB231:
.LBB232:
.LBB233:
	.loc 1 997 38 view .LVU435
	movl	$68, %edx
.LBE233:
.LBE232:
.LBE231:
.LBE230:
.LBB240:
.LBB229:
	.loc 1 782 15 view .LVU436
	rep stosq
.LVL126:
	.loc 1 782 15 view .LVU437
.LBE229:
.LBE240:
	.loc 1 19042 9 is_stmt 1 view .LVU438
.LBB241:
.LBI230:
	.loc 1 976 12 view .LVU439
.LBB238:
	.loc 1 978 5 view .LVU440
	.loc 1 979 5 view .LVU441
	.loc 1 981 5 view .LVU442
	.loc 1 984 5 view .LVU443
	.loc 1 987 5 view .LVU444
.LBB236:
.LBI232:
	.loc 1 976 12 view .LVU445
	.loc 1 976 12 is_stmt 0 view .LVU446
	jmp	.L119
.LVL127:
	.p2align 4,,10
	.p2align 3
.L121:
.LBB234:
	.loc 1 997 38 view .LVU447
	movzbl	.LC13(%rax), %edx
	.loc 1 997 30 view .LVU448
	testb	%dl, %dl
	je	.L131
.LVL128:
.L119:
	.loc 1 998 16 view .LVU449
	movb	%dl, -1328(%rbp,%rax)
	.loc 1 997 5 view .LVU450
	addq	$1, %rax
.LVL129:
	.loc 1 997 30 view .LVU451
	cmpq	$255, %rax
	jne	.L121
	leaq	-1073(%rbp), %rax
.LVL130:
.L120:
	.loc 1 1002 16 view .LVU452
	movb	$0, (%rax)
.LVL131:
	.loc 1 1002 16 view .LVU453
.LBE234:
.LBE236:
.LBE238:
.LBE241:
	.loc 1 19043 9 is_stmt 1 view .LVU454
	.loc 1 19044 28 is_stmt 0 view .LVU455
	movq	%r13, %rcx
	movq	%r14, %rdx
	movl	$2, %esi
	.loc 1 19043 30 view .LVU456
	movl	$1, -1072(%rbp)
	.loc 1 19044 9 is_stmt 1 view .LVU457
	.loc 1 19044 28 is_stmt 0 view .LVU458
	movq	%r12, %rdi
	call	*%rbx
.LVL132:
	.loc 1 19044 28 view .LVU459
.LBE226:
	jmp	.L118
.LVL133:
	.p2align 4,,10
	.p2align 3
.L131:
.LBB243:
.LBB242:
.LBB239:
.LBB237:
.LBB235:
	.loc 1 1002 14 view .LVU460
	leaq	-1328(%rbp), %rsi
.LVL134:
	.loc 1 1002 14 view .LVU461
	addq	%rsi, %rax
.LVL135:
	.loc 1 1002 14 view .LVU462
	jmp	.L120
.LVL136:
.L127:
	.loc 1 1002 14 view .LVU463
.LBE235:
.LBE237:
.LBE239:
.LBE242:
.LBE243:
.LBE245:
	.loc 1 19026 5 discriminator 1 view .LVU464
	movl	$.LC10, %ecx
	movl	$19026, %edx
.LVL137:
	.loc 1 19026 5 discriminator 1 view .LVU465
	movl	$.LC8, %esi
	movl	$.LC9, %edi
.LVL138:
	.loc 1 19026 5 discriminator 1 view .LVU466
	call	__assert_fail
.LVL139:
.L128:
	.loc 1 19027 5 discriminator 1 view .LVU467
	movl	$.LC10, %ecx
	movl	$19027, %edx
.LVL140:
	.loc 1 19027 5 discriminator 1 view .LVU468
	movl	$.LC8, %esi
	movl	$.LC11, %edi
.LVL141:
	.loc 1 19027 5 discriminator 1 view .LVU469
	call	__assert_fail
.LVL142:
	.cfi_endproc
.LFE77:
	.size	_ZL34ma_context_enumerate_devices__jackP10ma_contextPFjS0_14ma_device_typePK14ma_device_infoPvES5_, .-_ZL34ma_context_enumerate_devices__jackP10ma_contextPFjS0_14ma_device_typePK14ma_device_infoPvES5_
	.section	.rodata.str1.8
	.align 8
.LC14:
	.string	"ma_result ma_context_get_device_info__jack(ma_context*, ma_device_type, const ma_device_id*, ma_device_info*)"
	.section	.rodata.str1.1
.LC15:
	.string	"[JACK] Failed to open client."
.LC16:
	.string	"32 bit float mono audio"
	.section	.rodata.str1.8
	.align 8
.LC17:
	.string	"[JACK] Failed to query physical ports."
	.text
	.p2align 4
	.type	_ZL32ma_context_get_device_info__jackP10ma_context14ma_device_typePK12ma_device_idP14ma_device_info, @function
_ZL32ma_context_get_device_info__jackP10ma_context14ma_device_typePK12ma_device_idP14ma_device_info:
.LVL143:
.LFB78:
	.loc 1 19053 1 is_stmt 1 view -0
	.cfi_startproc
	.loc 1 19053 1 is_stmt 0 view .LVU471
	pushq	%rbp
	.cfi_def_cfa_offset 16
	.cfi_offset 6, -16
	movq	%rsp, %rbp
	.cfi_def_cfa_register 6
	pushq	%r13
	pushq	%r12
	pushq	%rbx
	subq	$24, %rsp
	.cfi_offset 13, -24
	.cfi_offset 12, -32
	.cfi_offset 3, -40
1:	call	mcount
	.loc 1 19053 1 view .LVU472
	.loc 1 19054 5 is_stmt 1 view .LVU473
	.loc 1 19055 5 view .LVU474
	.loc 1 19056 5 view .LVU475
	.loc 1 19058 5 view .LVU476
	.loc 1 19053 1 is_stmt 0 view .LVU477
	movq	%rdi, %r12
	movq	%rcx, %rbx
	.loc 1 19058 5 view .LVU478
	testq	%rdi, %rdi
	je	.L158
	.loc 1 19060 5 is_stmt 1 view .LVU479
	testq	%rdx, %rdx
	je	.L134
	.loc 1 19060 27 is_stmt 0 discriminator 1 view .LVU480
	movl	(%rdx), %eax
	testl	%eax, %eax
	jne	.L149
.L134:
	.loc 1 19065 5 is_stmt 1 view .LVU481
	.loc 1 19066 35 is_stmt 0 view .LVU482
	leaq	256(%rbx), %rcx
.LVL144:
.LBB258:
.LBB259:
.LBB260:
.LBB261:
	.loc 1 997 12 view .LVU483
	xorl	%eax, %eax
	.loc 1 997 38 view .LVU484
	movl	$68, %edx
.LVL145:
	.loc 1 997 38 view .LVU485
.LBE261:
.LBE260:
.LBE259:
.LBE258:
	.loc 1 19065 5 view .LVU486
	cmpl	$1, %esi
	jne	.L137
	jmp	.L136
.LVL146:
	.p2align 4,,10
	.p2align 3
.L143:
.LBB268:
.LBB269:
.LBB270:
.LBB271:
	.loc 1 997 38 view .LVU487
	movzbl	.LC13(%rax), %edx
	.loc 1 997 30 view .LVU488
	testb	%dl, %dl
	je	.L159
.LVL147:
.L137:
	.loc 1 998 16 view .LVU489
	movb	%dl, 256(%rbx,%rax)
	.loc 1 997 5 view .LVU490
	addq	$1, %rax
.LVL148:
	.loc 1 997 30 view .LVU491
	cmpq	$255, %rax
	jne	.L143
	.loc 1 1002 14 view .LVU492
	leaq	511(%rbx), %rax
.LVL149:
.L142:
	.loc 1 1002 16 view .LVU493
	movb	$0, (%rax)
	.loc 1 1002 16 view .LVU494
.LBE271:
.LBE270:
.LBE269:
.LBE268:
	.loc 1 19072 5 is_stmt 1 view .LVU495
	.loc 1 19078 42 is_stmt 0 view .LVU496
	leaq	-40(%rbp), %rsi
.LVL150:
	.loc 1 19078 42 view .LVU497
	movq	%r12, %rdi
.LVL151:
	.loc 1 19072 28 view .LVU498
	movl	$1, 512(%rbx)
	.loc 1 19075 5 is_stmt 1 view .LVU499
	.loc 1 19075 46 is_stmt 0 view .LVU500
	movl	$5, 520(%rbx)
	.loc 1 19078 5 is_stmt 1 view .LVU501
	.loc 1 19078 42 is_stmt 0 view .LVU502
	call	_ZL28ma_context_open_client__jackP10ma_contextPP16ma_jack_client_t
.LVL152:
	movl	%eax, %r13d
.LVL153:
	.loc 1 19079 5 is_stmt 1 view .LVU503
	testl	%eax, %eax
	jne	.L140
	.loc 1 19084 5 view .LVU504
	.loc 1 19084 119 is_stmt 0 view .LVU505
	movq	-40(%rbp), %rdi
	call	*480(%r12)
.LVL154:
	.loc 1 19087 70 view .LVU506
	movl	$6, %ecx
	.loc 1 19085 50 view .LVU507
	movl	$0, 524(%rbx)
	.loc 1 19084 50 view .LVU508
	movl	%eax, 528(%rbx)
	.loc 1 19085 5 is_stmt 1 view .LVU509
	.loc 1 19087 5 view .LVU510
	.loc 1 19087 55 is_stmt 0 view .LVU511
	movq	496(%r12), %rax
.L148:
	.loc 1 19087 70 discriminator 4 view .LVU512
	movq	-40(%rbp), %rdi
	movl	$.LC16, %edx
	xorl	%esi, %esi
	call	*%rax
.LVL155:
	movq	%rax, %rdi
.LVL156:
	.loc 1 19088 5 is_stmt 1 discriminator 4 view .LVU513
	testq	%rax, %rax
	je	.L160
	.loc 1 19094 5 view .LVU514
	.loc 1 19094 64 view .LVU515
	.loc 1 19094 54 is_stmt 0 view .LVU516
	movl	524(%rbx), %edx
	.loc 1 19094 64 view .LVU517
	cmpq	$0, (%rdi,%rdx,8)
	.loc 1 19094 54 view .LVU518
	movq	%rdx, %rax
.LVL157:
	.loc 1 19094 64 view .LVU519
	je	.L146
	addl	$1, %eax
	.p2align 4,,10
	.p2align 3
.L147:
	.loc 1 19095 9 is_stmt 1 view .LVU520
	.loc 1 19094 5 view .LVU521
	.loc 1 19094 64 view .LVU522
	.loc 1 19094 54 is_stmt 0 view .LVU523
	movl	%eax, %edx
	movl	%eax, %ecx
	.loc 1 19094 64 view .LVU524
	addl	$1, %eax
	cmpq	$0, (%rdi,%rdx,8)
	jne	.L147
	movl	%ecx, 524(%rbx)
.L146:
	.loc 1 19098 5 is_stmt 1 view .LVU525
	.loc 1 19098 45 is_stmt 0 view .LVU526
	movl	$0, 532(%rbx)
	.loc 1 19099 5 is_stmt 1 view .LVU527
	.loc 1 19105 12 is_stmt 0 view .LVU528
	xorl	%r13d, %r13d
.LVL158:
	.loc 1 19099 40 view .LVU529
	movl	$1, 516(%rbx)
	.loc 1 19101 5 is_stmt 1 view .LVU530
	.loc 1 19101 50 is_stmt 0 view .LVU531
	call	*552(%r12)
.LVL159:
	.loc 1 19102 5 is_stmt 1 view .LVU532
	.loc 1 19102 66 is_stmt 0 view .LVU533
	movq	-40(%rbp), %rdi
	call	*440(%r12)
.LVL160:
.L132:
	.loc 1 19106 1 view .LVU534
	addq	$24, %rsp
	movl	%r13d, %eax
	popq	%rbx
.LVL161:
	.loc 1 19106 1 view .LVU535
	popq	%r12
.LVL162:
	.loc 1 19106 1 view .LVU536
	popq	%r13
	popq	%rbp
	.cfi_remember_state
	.cfi_def_cfa 7, 8
	ret
.LVL163:
	.p2align 4,,10
	.p2align 3
.L139:
	.cfi_restore_state
.LBB275:
.LBB266:
.LBB264:
.LBB262:
	.loc 1 997 38 view .LVU537
	movzbl	.LC12(%rax), %edx
	.loc 1 997 30 view .LVU538
	testb	%dl, %dl
	je	.L161
.LVL164:
.L136:
	.loc 1 998 16 view .LVU539
	movb	%dl, 256(%rbx,%rax)
	.loc 1 997 5 view .LVU540
	addq	$1, %rax
.LVL165:
	.loc 1 997 30 view .LVU541
	cmpq	$255, %rax
	jne	.L139
	.loc 1 1002 14 view .LVU542
	leaq	511(%rbx), %rax
.LVL166:
.L138:
	.loc 1 1002 16 view .LVU543
	movb	$0, (%rax)
	.loc 1 1002 16 view .LVU544
.LBE262:
.LBE264:
.LBE266:
.LBE275:
	.loc 1 19072 5 is_stmt 1 view .LVU545
	.loc 1 19078 42 is_stmt 0 view .LVU546
	leaq	-40(%rbp), %rsi
.LVL167:
	.loc 1 19078 42 view .LVU547
	movq	%r12, %rdi
.LVL168:
	.loc 1 19072 28 view .LVU548
	movl	$1, 512(%rbx)
	.loc 1 19075 5 is_stmt 1 view .LVU549
	.loc 1 19075 46 is_stmt 0 view .LVU550
	movl	$5, 520(%rbx)
	.loc 1 19078 5 is_stmt 1 view .LVU551
	.loc 1 19078 42 is_stmt 0 view .LVU552
	call	_ZL28ma_context_open_client__jackP10ma_contextPP16ma_jack_client_t
.LVL169:
	movl	%eax, %r13d
.LVL170:
	.loc 1 19079 5 is_stmt 1 view .LVU553
	testl	%eax, %eax
	jne	.L140
	.loc 1 19084 5 view .LVU554
	.loc 1 19084 119 is_stmt 0 view .LVU555
	movq	-40(%rbp), %rdi
	call	*480(%r12)
.LVL171:
	.loc 1 19087 70 view .LVU556
	movl	$5, %ecx
	.loc 1 19085 50 view .LVU557
	movl	$0, 524(%rbx)
	.loc 1 19084 50 view .LVU558
	movl	%eax, 528(%rbx)
	.loc 1 19085 5 is_stmt 1 view .LVU559
	.loc 1 19087 5 view .LVU560
	.loc 1 19087 55 is_stmt 0 view .LVU561
	movq	496(%r12), %rax
	jmp	.L148
.LVL172:
	.p2align 4,,10
	.p2align 3
.L159:
.LBB276:
.LBB274:
.LBB273:
.LBB272:
	.loc 1 1002 14 view .LVU562
	addq	%rcx, %rax
.LVL173:
	.loc 1 1002 14 view .LVU563
	jmp	.L142
.LVL174:
	.p2align 4,,10
	.p2align 3
.L140:
	.loc 1 1002 14 view .LVU564
.LBE272:
.LBE273:
.LBE274:
.LBE276:
	.loc 1 19080 9 is_stmt 1 view .LVU565
.LBB277:
.LBI277:
	.loc 1 28929 16 view .LVU566
.LBB278:
	.loc 1 28931 5 view .LVU567
	.loc 1 28935 5 view .LVU568
	.loc 1 28935 5 is_stmt 0 view .LVU569
.LBE278:
.LBE277:
	.loc 1 19080 21 view .LVU570
	movq	112(%r12), %rdi
	movl	$.LC15, %edx
	movl	$1, %esi
	xorl	%eax, %eax
.LVL175:
	.loc 1 19080 21 view .LVU571
	call	ma_log_postf
.LVL176:
	.loc 1 19081 9 is_stmt 1 view .LVU572
	.loc 1 19106 1 is_stmt 0 view .LVU573
	addq	$24, %rsp
	movl	%r13d, %eax
	popq	%rbx
.LVL177:
	.loc 1 19106 1 view .LVU574
	popq	%r12
.LVL178:
	.loc 1 19106 1 view .LVU575
	popq	%r13
.LVL179:
	.loc 1 19106 1 view .LVU576
	popq	%rbp
	.cfi_remember_state
	.cfi_def_cfa 7, 8
	ret
.LVL180:
	.p2align 4,,10
	.p2align 3
.L161:
	.cfi_restore_state
.LBB279:
.LBB267:
.LBB265:
.LBB263:
	.loc 1 1002 14 view .LVU577
	addq	%rcx, %rax
.LVL181:
	.loc 1 1002 14 view .LVU578
	jmp	.L138
.LVL182:
.L149:
	.loc 1 1002 14 view .LVU579
.LBE263:
.LBE265:
.LBE267:
.LBE279:
	.loc 1 19061 16 view .LVU580
	movl	$-104, %r13d
	jmp	.L132
.LVL183:
.L160:
	.loc 1 19089 9 is_stmt 1 view .LVU581
	.loc 1 19089 70 is_stmt 0 view .LVU582
	movq	-40(%rbp), %rdi
	.loc 1 19091 16 view .LVU583
	movl	$-301, %r13d
.LVL184:
	.loc 1 19089 70 view .LVU584
	call	*440(%r12)
.LVL185:
	.loc 1 19090 9 is_stmt 1 view .LVU585
.LBB280:
.LBI280:
	.loc 1 28929 16 view .LVU586
.LBB281:
	.loc 1 28931 5 view .LVU587
	.loc 1 28935 5 view .LVU588
	.loc 1 28935 5 is_stmt 0 view .LVU589
.LBE281:
.LBE280:
	.loc 1 19090 21 view .LVU590
	movq	112(%r12), %rdi
	movl	$.LC17, %edx
	xorl	%eax, %eax
	movl	$1, %esi
	call	ma_log_postf
.LVL186:
	.loc 1 19091 9 is_stmt 1 view .LVU591
	.loc 1 19091 16 is_stmt 0 view .LVU592
	jmp	.L132
.LVL187:
.L158:
	.loc 1 19058 5 discriminator 1 view .LVU593
	movl	$.LC14, %ecx
.LVL188:
	.loc 1 19058 5 discriminator 1 view .LVU594
	movl	$19058, %edx
.LVL189:
	.loc 1 19058 5 discriminator 1 view .LVU595
	movl	$.LC8, %esi
.LVL190:
	.loc 1 19058 5 discriminator 1 view .LVU596
	movl	$.LC9, %edi
.LVL191:
	.loc 1 19058 5 discriminator 1 view .LVU597
	call	__assert_fail
.LVL192:
	.cfi_endproc
.LFE78:
	.size	_ZL32ma_context_get_device_info__jackP10ma_context14ma_device_typePK12ma_device_idP14ma_device_info, .-_ZL32ma_context_get_device_info__jackP10ma_context14ma_device_typePK12ma_device_idP14ma_device_info
	.section	.rodata.str1.8
	.align 8
.LC18:
	.string	"ma_result ma_device_uninit__jack(ma_device*)"
	.section	.rodata.str1.1
.LC19:
	.string	"pDevice != __null"
	.text
	.p2align 4
	.type	_ZL22ma_device_uninit__jackP9ma_device, @function
_ZL22ma_device_uninit__jackP9ma_device:
.LVL193:
.LFB79:
	.loc 1 19110 1 is_stmt 1 view -0
	.cfi_startproc
	.loc 1 19110 1 is_stmt 0 view .LVU599
	pushq	%rbp
	.cfi_def_cfa_offset 16
	.cfi_offset 6, -16
	movq	%rsp, %rbp
	.cfi_def_cfa_register 6
	pushq	%rbx
	subq	$8, %rsp
	.cfi_offset 3, -24
1:	call	mcount
	.loc 1 19110 1 view .LVU600
	.loc 1 19111 5 is_stmt 1 view .LVU601
	.loc 1 19113 5 view .LVU602
	.loc 1 19110 1 is_stmt 0 view .LVU603
	movq	%rdi, %rbx
	.loc 1 19113 5 view .LVU604
	testq	%rdi, %rdi
	je	.L206
	.loc 1 19115 5 is_stmt 1 view .LVU605
	.loc 1 19115 14 is_stmt 0 view .LVU606
	movq	(%rdi), %rax
.LVL194:
	.loc 1 19116 5 is_stmt 1 view .LVU607
	testq	%rax, %rax
	je	.L207
	.loc 1 19118 5 view .LVU608
	.loc 1 19118 23 is_stmt 0 view .LVU609
	movq	3344(%rdi), %rdi
.LVL195:
	.loc 1 19118 5 view .LVU610
	testq	%rdi, %rdi
	je	.L165
	.loc 1 19119 9 is_stmt 1 view .LVU611
	.loc 1 19119 70 is_stmt 0 view .LVU612
	call	*440(%rax)
.LVL196:
.L165:
	.loc 1 19122 5 is_stmt 1 view .LVU613
	.loc 1 19122 18 is_stmt 0 view .LVU614
	movl	8(%rbx), %eax
	.loc 1 19122 49 view .LVU615
	leal	-2(%rax), %edx
	.loc 1 19122 5 view .LVU616
	cmpl	$1, %edx
	jbe	.L208
.L166:
	.loc 1 19127 5 is_stmt 1 view .LVU617
	andl	$-3, %eax
	.loc 1 19127 50 is_stmt 0 view .LVU618
	cmpl	$1, %eax
	je	.L209
.L185:
	.loc 1 19133 1 view .LVU619
	movq	-8(%rbp), %rbx
.LVL197:
	.loc 1 19133 1 view .LVU620
	xorl	%eax, %eax
	leave
	.cfi_remember_state
	.cfi_def_cfa 7, 8
	ret
.LVL198:
	.p2align 4,,10
	.p2align 3
.L209:
	.cfi_restore_state
	.loc 1 19128 9 is_stmt 1 view .LVU621
	.loc 1 19128 31 is_stmt 0 view .LVU622
	movq	3368(%rbx), %rdi
	.loc 1 19128 70 view .LVU623
	movq	(%rbx), %rax
.LVL199:
.LBB314:
.LBI314:
	.loc 1 44086 13 is_stmt 1 view .LVU624
.LBB315:
	.loc 1 44088 5 view .LVU625
	testq	%rdi, %rdi
	je	.L171
	.loc 1 44092 5 view .LVU626
	movq	312(%rax), %rdx
.LVL200:
.LBB316:
.LBI316:
	.loc 1 44086 13 view .LVU627
.LBB317:
	.loc 1 44093 9 is_stmt 0 view .LVU628
	testq	%rdx, %rdx
	je	.L185
	.loc 1 44094 41 view .LVU629
	movq	288(%rax), %rsi
	call	*%rdx
.LVL201:
	.loc 1 44094 41 view .LVU630
.LBE317:
.LBE316:
.LBE315:
.LBE314:
	.loc 1 19129 58 view .LVU631
	movq	(%rbx), %rax
.L171:
	.loc 1 19129 9 is_stmt 1 view .LVU632
	.loc 1 19129 31 is_stmt 0 view .LVU633
	movq	3352(%rbx), %rdi
.LVL202:
.LBB318:
.LBI318:
	.loc 1 44086 13 is_stmt 1 view .LVU634
.LBB319:
	.loc 1 44088 5 view .LVU635
	testq	%rdi, %rdi
	je	.L185
	.loc 1 44092 5 view .LVU636
	movq	288(%rax), %rsi
	movq	312(%rax), %rax
.LVL203:
.LBB320:
.LBI320:
	.loc 1 44086 13 view .LVU637
.LBB321:
	.loc 1 44093 9 is_stmt 0 view .LVU638
	testq	%rax, %rax
	je	.L185
	.loc 1 44094 41 view .LVU639
	call	*%rax
.LVL204:
	.loc 1 44094 41 view .LVU640
.LBE321:
.LBE320:
.LBE319:
.LBE318:
	.loc 1 19133 1 view .LVU641
	movq	-8(%rbp), %rbx
.LVL205:
	.loc 1 19133 1 view .LVU642
	xorl	%eax, %eax
	leave
	.cfi_remember_state
	.cfi_def_cfa 7, 8
	ret
.LVL206:
	.p2align 4,,10
	.p2align 3
.L208:
	.cfi_restore_state
	.loc 1 19123 9 is_stmt 1 view .LVU643
	.loc 1 19123 31 is_stmt 0 view .LVU644
	movq	3376(%rbx), %rdi
	.loc 1 19123 69 view .LVU645
	movq	(%rbx), %rdx
.LVL207:
.LBB322:
.LBI322:
	.loc 1 44086 13 is_stmt 1 view .LVU646
.LBB323:
	.loc 1 44088 5 view .LVU647
	testq	%rdi, %rdi
	je	.L167
	.loc 1 44092 5 view .LVU648
	movq	312(%rdx), %rcx
.LVL208:
.LBB324:
.LBI324:
	.loc 1 44086 13 view .LVU649
.LBB325:
	.loc 1 44093 9 is_stmt 0 view .LVU650
	testq	%rcx, %rcx
	je	.L166
	.loc 1 44094 41 view .LVU651
	movq	288(%rdx), %rsi
	call	*%rcx
.LVL209:
	.loc 1 44094 41 view .LVU652
.LBE325:
.LBE324:
.LBE323:
.LBE322:
	.loc 1 19124 57 view .LVU653
	movq	(%rbx), %rdx
.L167:
	.loc 1 19124 9 is_stmt 1 view .LVU654
	.loc 1 19124 31 is_stmt 0 view .LVU655
	movq	3360(%rbx), %rdi
.LVL210:
.LBB326:
.LBI326:
	.loc 1 44086 13 is_stmt 1 view .LVU656
.LBB327:
	.loc 1 44088 5 view .LVU657
	testq	%rdi, %rdi
	je	.L205
	.loc 1 44092 5 view .LVU658
	movq	312(%rdx), %rax
.LVL211:
.LBB328:
.LBI328:
	.loc 1 44086 13 view .LVU659
	.loc 1 44086 13 is_stmt 0 view .LVU660
	movq	288(%rdx), %rsi
.LBB329:
	.loc 1 44093 9 view .LVU661
	testq	%rax, %rax
	je	.L205
	.loc 1 44094 41 view .LVU662
	call	*%rax
.LVL212:
.L205:
	.loc 1 44094 41 view .LVU663
.LBE329:
.LBE328:
.LBE327:
.LBE326:
	.loc 1 19127 18 view .LVU664
	movl	8(%rbx), %eax
.LBB333:
.LBB332:
.LBB331:
.LBB330:
	jmp	.L166
.L206:
	.loc 1 19127 18 view .LVU665
.LBE330:
.LBE331:
.LBE332:
.LBE333:
	.loc 1 19113 5 discriminator 1 view .LVU666
	movl	$.LC18, %ecx
	movl	$19113, %edx
	movl	$.LC8, %esi
	movl	$.LC19, %edi
	call	__assert_fail
.LVL213:
.L207:
	.loc 1 19116 5 discriminator 1 view .LVU667
	movl	$.LC18, %ecx
	movl	$19116, %edx
	movl	$.LC8, %esi
	movl	$.LC9, %edi
	call	__assert_fail
.LVL214:
	.loc 1 19116 5 discriminator 1 view .LVU668
	.cfi_endproc
.LFE79:
	.size	_ZL22ma_device_uninit__jackP9ma_device, .-_ZL22ma_device_uninit__jackP9ma_device
	.section	.rodata.str1.8
	.align 8
.LC20:
	.string	"void ma_device__jack_shutdown_callback(void*)"
	.text
	.p2align 4
	.type	_ZL33ma_device__jack_shutdown_callbackPv, @function
_ZL33ma_device__jack_shutdown_callbackPv:
.LVL215:
.LFB81:
	.loc 1 19136 1 is_stmt 1 view -0
	.cfi_startproc
	.loc 1 19136 1 is_stmt 0 view .LVU670
	pushq	%rbp
	.cfi_def_cfa_offset 16
	.cfi_offset 6, -16
	movq	%rsp, %rbp
	.cfi_def_cfa_register 6
1:	call	mcount
	.loc 1 19136 1 view .LVU671
	.loc 1 19138 5 is_stmt 1 view .LVU672
.LVL216:
	.loc 1 19139 5 view .LVU673
	testq	%rdi, %rdi
	je	.L218
	.loc 1 19141 5 view .LVU674
.LVL217:
.LBB346:
.LBI346:
	.loc 1 29817 18 view .LVU675
.LBB347:
.LBB348:
.LBB349:
.LBI349:
	.loc 1 29890 24 view .LVU676
.LBB350:
	.loc 1 29896 5 view .LVU677
	.loc 1 29896 29 is_stmt 0 view .LVU678
	movl	16(%rdi), %eax
.LVL218:
	.loc 1 29896 29 view .LVU679
.LBE350:
.LBE349:
.LBE348:
	.loc 1 29825 5 view .LVU680
	testl	%eax, %eax
	je	.L210
.LVL219:
.LBB351:
.LBB352:
.LBI352:
	.loc 1 29890 24 is_stmt 1 view .LVU681
.LBB353:
	.loc 1 29896 5 view .LVU682
	.loc 1 29896 29 is_stmt 0 view .LVU683
	movl	16(%rdi), %eax
.LVL220:
	.loc 1 29896 29 view .LVU684
.LBE353:
.LBE352:
.LBE351:
	.loc 1 29829 5 view .LVU685
	cmpl	$1, %eax
	je	.L210
.LBE347:
.LBE346:
	.loc 1 19142 1 view .LVU686
	popq	%rbp
	.cfi_remember_state
	.cfi_def_cfa 7, 8
.LBB355:
.LBB354:
	jmp	ma_device_stop.part.0.isra.0
.LVL221:
	.p2align 4,,10
	.p2align 3
.L210:
	.cfi_restore_state
	.loc 1 19142 1 view .LVU687
.LBE354:
.LBE355:
	popq	%rbp
	.cfi_remember_state
	.cfi_def_cfa 7, 8
	ret
.LVL222:
.L218:
	.cfi_restore_state
.LBB356:
.LBI356:
	.loc 1 19135 13 is_stmt 1 view .LVU688
.LBB357:
	.loc 1 19139 5 is_stmt 0 view .LVU689
	movl	$.LC20, %ecx
	movl	$19139, %edx
	movl	$.LC8, %esi
	movl	$.LC19, %edi
.LVL223:
	.loc 1 19139 5 view .LVU690
	call	__assert_fail
.LVL224:
.LBE357:
.LBE356:
	.cfi_endproc
.LFE81:
	.size	_ZL33ma_device__jack_shutdown_callbackPv, .-_ZL33ma_device__jack_shutdown_callbackPv
	.section	.rodata.str1.8
	.align 8
.LC21:
	.string	"int ma_device__jack_buffer_size_callback(ma_jack_nframes_t, void*)"
	.text
	.p2align 4
	.type	_ZL36ma_device__jack_buffer_size_callbackjPv, @function
_ZL36ma_device__jack_buffer_size_callbackjPv:
.LVL225:
.LFB84:
	.loc 1 19145 1 is_stmt 1 view -0
	.cfi_startproc
	.loc 1 19145 1 is_stmt 0 view .LVU692
	pushq	%rbp
	.cfi_def_cfa_offset 16
	.cfi_offset 6, -16
	movq	%rsp, %rbp
	.cfi_def_cfa_register 6
	pushq	%r14
	pushq	%r13
	pushq	%r12
	pushq	%rbx
	subq	$32, %rsp
	.cfi_offset 14, -24
	.cfi_offset 13, -32
	.cfi_offset 12, -40
	.cfi_offset 3, -48
1:	call	mcount
	.loc 1 19145 1 view .LVU693
	.loc 1 19146 5 is_stmt 1 view .LVU694
.LVL226:
	.loc 1 19147 5 view .LVU695
	.loc 1 19145 1 is_stmt 0 view .LVU696
	movl	%edi, %r12d
	movq	%rsi, %rbx
	.loc 1 19147 5 view .LVU697
	testq	%rsi, %rsi
	je	.L261
	.loc 1 19149 5 is_stmt 1 view .LVU698
.LBB398:
	.loc 1 19149 18 is_stmt 0 view .LVU699
	movl	8(%rsi), %eax
	.loc 1 19149 49 view .LVU700
	leal	-2(%rax), %edx
	.loc 1 19149 5 view .LVU701
	cmpl	$1, %edx
	jbe	.L262
.LVL227:
.L221:
	.loc 1 19149 5 view .LVU702
.LBE398:
	.loc 1 19162 5 is_stmt 1 view .LVU703
.LBB427:
	andl	$-3, %eax
.LBE427:
	.loc 1 19175 12 is_stmt 0 view .LVU704
	xorl	%r8d, %r8d
.LBB455:
	.loc 1 19162 50 view .LVU705
	cmpl	$1, %eax
	je	.L263
.LBE455:
	.loc 1 19176 1 view .LVU706
	addq	$32, %rsp
	movl	%r8d, %eax
	popq	%rbx
.LVL228:
	.loc 1 19176 1 view .LVU707
	popq	%r12
.LVL229:
	.loc 1 19176 1 view .LVU708
	popq	%r13
	popq	%r14
	popq	%rbp
	.cfi_remember_state
	.cfi_def_cfa 7, 8
	ret
.LVL230:
	.p2align 4,,10
	.p2align 3
.L263:
	.cfi_restore_state
.LBB456:
.LBB428:
	.loc 1 19163 9 is_stmt 1 view .LVU709
.LBB429:
.LBI429:
	.loc 1 44154 18 view .LVU710
.LBB430:
	.loc 1 44156 5 view .LVU711
	.loc 1 44156 15 is_stmt 0 view .LVU712
	movabsq	$17179869188, %rax
	movdqa	.LC22(%rip), %xmm0
.LBE430:
.LBE429:
	.loc 1 19163 43 view .LVU713
	movl	1304(%rbx), %r14d
.LBB434:
.LBB431:
	.loc 1 44156 15 view .LVU714
	movq	%rax, -48(%rbp)
	.loc 1 44164 5 is_stmt 1 view .LVU715
.LVL231:
	.loc 1 44164 5 is_stmt 0 view .LVU716
.LBE431:
.LBE434:
	.loc 1 19164 72 view .LVU717
	movq	(%rbx), %rdx
.LBB435:
.LBB432:
	.loc 1 44164 24 view .LVU718
	movslq	1300(%rbx), %rax
.LBE432:
.LBE435:
	.loc 1 19163 43 view .LVU719
	imull	%r12d, %r14d
.LBB436:
.LBB433:
	.loc 1 44156 15 view .LVU720
	movaps	%xmm0, -64(%rbp)
.LBE433:
.LBE436:
	.loc 1 19163 140 view .LVU721
	imull	-64(%rbp,%rax,4), %r14d
.LVL232:
	.loc 1 19164 9 is_stmt 1 view .LVU722
.LBB437:
.LBI437:
	.loc 1 44063 14 view .LVU723
.LBB438:
	.loc 1 44065 5 view .LVU724
.LBB439:
.LBI439:
	.loc 1 44050 14 view .LVU725
.LBB440:
	.loc 1 44052 5 view .LVU726
	.loc 1 44053 9 view .LVU727
	.loc 1 44053 35 is_stmt 0 view .LVU728
	movq	296(%rdx), %rax
	.loc 1 44053 9 view .LVU729
	testq	%rax, %rax
	je	.L224
	.loc 1 44054 13 is_stmt 1 view .LVU730
	.loc 1 44054 50 is_stmt 0 view .LVU731
	movq	288(%rdx), %rsi
	movq	%r14, %rdi
	call	*%rax
.LVL233:
	.loc 1 44054 50 view .LVU732
	movq	%rax, %r13
.LVL234:
	.loc 1 44054 50 view .LVU733
.LBE440:
.LBE439:
	.loc 1 44066 5 is_stmt 1 view .LVU734
	testq	%rax, %rax
	je	.L224
	.loc 1 44067 9 view .LVU735
.LVL235:
.LBB441:
.LBI441:
	.loc 1 776 23 view .LVU736
.LBB442:
	.loc 1 781 5 view .LVU737
	testq	%r14, %r14
	jne	.L264
.LVL236:
.L227:
	.loc 1 781 5 is_stmt 0 view .LVU738
.LBE442:
.LBE441:
	.loc 1 44070 5 is_stmt 1 view .LVU739
	.loc 1 44070 5 is_stmt 0 view .LVU740
.LBE438:
.LBE437:
	.loc 1 19165 9 is_stmt 1 view .LVU741
	.loc 1 19169 9 view .LVU742
	.loc 1 19169 31 is_stmt 0 view .LVU743
	movq	3368(%rbx), %rdi
.LVL237:
.LBB446:
.LBI446:
	.loc 1 44086 13 is_stmt 1 view .LVU744
.LBB447:
	.loc 1 44088 5 view .LVU745
	testq	%rdi, %rdi
	je	.L228
.LBE447:
.LBE446:
	.loc 1 19169 70 is_stmt 0 view .LVU746
	movq	(%rbx), %rdx
.LBB451:
.LBB450:
	.loc 1 44092 5 is_stmt 1 view .LVU747
	movq	312(%rdx), %rax
.LVL238:
.LBB448:
.LBI448:
	.loc 1 44086 13 view .LVU748
.LBB449:
	.loc 1 44093 9 is_stmt 0 view .LVU749
	testq	%rax, %rax
	je	.L228
	.loc 1 44094 41 view .LVU750
	movq	288(%rdx), %rsi
	call	*%rax
.LVL239:
.L228:
	.loc 1 44094 41 view .LVU751
.LBE449:
.LBE448:
.LBE450:
.LBE451:
	.loc 1 19171 9 is_stmt 1 view .LVU752
	.loc 1 19171 51 is_stmt 0 view .LVU753
	movq	%r13, 3368(%rbx)
	.loc 1 19172 9 is_stmt 1 view .LVU754
.LBE428:
.LBE456:
	.loc 1 19175 12 is_stmt 0 view .LVU755
	xorl	%r8d, %r8d
.LBB457:
.LBB453:
	.loc 1 19172 54 view .LVU756
	movl	%r12d, 1568(%rbx)
.LBE453:
.LBE457:
	.loc 1 19176 1 view .LVU757
	addq	$32, %rsp
	movl	%r8d, %eax
	popq	%rbx
.LVL240:
	.loc 1 19176 1 view .LVU758
	popq	%r12
.LVL241:
	.loc 1 19176 1 view .LVU759
	popq	%r13
.LVL242:
	.loc 1 19176 1 view .LVU760
	popq	%r14
.LVL243:
	.loc 1 19176 1 view .LVU761
	popq	%rbp
	.cfi_remember_state
	.cfi_def_cfa 7, 8
	ret
.LVL244:
	.p2align 4,,10
	.p2align 3
.L262:
	.cfi_restore_state
.LBB458:
.LBB399:
	.loc 1 19150 9 is_stmt 1 view .LVU762
.LBB400:
.LBI400:
	.loc 1 44154 18 view .LVU763
.LBB401:
	.loc 1 44156 5 view .LVU764
	.loc 1 44156 15 is_stmt 0 view .LVU765
	movabsq	$17179869188, %rax
	movdqa	.LC22(%rip), %xmm0
.LBE401:
.LBE400:
	.loc 1 19150 43 view .LVU766
	movl	2736(%rsi), %r14d
.LBB405:
.LBB402:
	.loc 1 44156 15 view .LVU767
	movq	%rax, -48(%rbp)
	.loc 1 44164 5 is_stmt 1 view .LVU768
.LVL245:
	.loc 1 44164 5 is_stmt 0 view .LVU769
.LBE402:
.LBE405:
	.loc 1 19151 72 view .LVU770
	movq	(%rsi), %rdx
.LBB406:
.LBB403:
	.loc 1 44164 24 view .LVU771
	movslq	2732(%rsi), %rax
.LBE403:
.LBE406:
	.loc 1 19150 43 view .LVU772
	imull	%edi, %r14d
.LBB407:
.LBB404:
	.loc 1 44156 15 view .LVU773
	movaps	%xmm0, -64(%rbp)
.LBE404:
.LBE407:
	.loc 1 19150 138 view .LVU774
	imull	-64(%rbp,%rax,4), %r14d
.LVL246:
	.loc 1 19151 9 is_stmt 1 view .LVU775
.LBB408:
.LBI408:
	.loc 1 44063 14 view .LVU776
.LBB409:
	.loc 1 44065 5 view .LVU777
.LBB410:
.LBI410:
	.loc 1 44050 14 view .LVU778
.LBB411:
	.loc 1 44052 5 view .LVU779
	.loc 1 44053 9 view .LVU780
	.loc 1 44053 35 is_stmt 0 view .LVU781
	movq	296(%rdx), %rax
	.loc 1 44053 9 view .LVU782
	testq	%rax, %rax
	je	.L224
	.loc 1 44054 13 is_stmt 1 view .LVU783
	.loc 1 44054 50 is_stmt 0 view .LVU784
	movq	288(%rdx), %rsi
	movq	%r14, %rdi
.LVL247:
	.loc 1 44054 50 view .LVU785
	call	*%rax
.LVL248:
	.loc 1 44054 50 view .LVU786
	movq	%rax, %r13
.LVL249:
	.loc 1 44054 50 view .LVU787
.LBE411:
.LBE410:
	.loc 1 44066 5 is_stmt 1 view .LVU788
	testq	%rax, %rax
	je	.L224
	.loc 1 44067 9 view .LVU789
.LVL250:
.LBB412:
.LBI412:
	.loc 1 776 23 view .LVU790
.LBB413:
	.loc 1 781 5 view .LVU791
	testq	%r14, %r14
	jne	.L265
.LVL251:
.L225:
	.loc 1 781 5 is_stmt 0 view .LVU792
.LBE413:
.LBE412:
	.loc 1 44070 5 is_stmt 1 view .LVU793
	.loc 1 44070 5 is_stmt 0 view .LVU794
.LBE409:
.LBE408:
	.loc 1 19152 9 is_stmt 1 view .LVU795
	.loc 1 19156 9 view .LVU796
	.loc 1 19156 31 is_stmt 0 view .LVU797
	movq	3376(%rbx), %rdi
.LVL252:
.LBB417:
.LBI417:
	.loc 1 44086 13 is_stmt 1 view .LVU798
.LBB418:
	.loc 1 44088 5 view .LVU799
	testq	%rdi, %rdi
	je	.L226
.LBE418:
.LBE417:
	.loc 1 19156 69 is_stmt 0 view .LVU800
	movq	(%rbx), %rdx
.LBB422:
.LBB421:
	.loc 1 44092 5 is_stmt 1 view .LVU801
	movq	312(%rdx), %rax
.LVL253:
.LBB419:
.LBI419:
	.loc 1 44086 13 view .LVU802
.LBB420:
	.loc 1 44093 9 is_stmt 0 view .LVU803
	testq	%rax, %rax
	je	.L226
	.loc 1 44094 41 view .LVU804
	movq	288(%rdx), %rsi
	call	*%rax
.LVL254:
.L226:
	.loc 1 44094 41 view .LVU805
.LBE420:
.LBE419:
.LBE421:
.LBE422:
	.loc 1 19158 9 is_stmt 1 view .LVU806
	.loc 1 19158 50 is_stmt 0 view .LVU807
	movq	%r13, 3376(%rbx)
	.loc 1 19159 9 is_stmt 1 view .LVU808
.LBE399:
.LBE458:
.LBB459:
	.loc 1 19162 18 is_stmt 0 view .LVU809
	movl	8(%rbx), %eax
.LBE459:
.LBB460:
.LBB424:
	.loc 1 19159 54 view .LVU810
	movl	%r12d, 1568(%rbx)
.LBE424:
	jmp	.L221
.LVL255:
	.p2align 4,,10
	.p2align 3
.L224:
	.loc 1 19159 54 view .LVU811
.LBE460:
	.loc 1 19176 1 view .LVU812
	addq	$32, %rsp
.LBB461:
.LBB425:
	.loc 1 19153 20 view .LVU813
	movl	$-4, %r8d
.LBE425:
.LBE461:
	.loc 1 19176 1 view .LVU814
	popq	%rbx
.LVL256:
	.loc 1 19176 1 view .LVU815
	movl	%r8d, %eax
	popq	%r12
.LVL257:
	.loc 1 19176 1 view .LVU816
	popq	%r13
	popq	%r14
	popq	%rbp
	.cfi_remember_state
	.cfi_def_cfa 7, 8
	ret
.LVL258:
	.p2align 4,,10
	.p2align 3
.L264:
	.cfi_restore_state
.LBB462:
.LBB454:
.LBB452:
.LBB445:
.LBB444:
.LBB443:
	.loc 1 782 9 is_stmt 1 view .LVU817
	.loc 1 782 15 is_stmt 0 view .LVU818
	movq	%r14, %rdx
	xorl	%esi, %esi
	movq	%rax, %rdi
	call	memset
.LVL259:
	.loc 1 782 15 view .LVU819
	jmp	.L227
.LVL260:
	.p2align 4,,10
	.p2align 3
.L265:
	.loc 1 782 15 view .LVU820
.LBE443:
.LBE444:
.LBE445:
.LBE452:
.LBE454:
.LBE462:
.LBB463:
.LBB426:
.LBB423:
.LBB416:
.LBB415:
.LBB414:
	.loc 1 782 9 is_stmt 1 view .LVU821
	.loc 1 782 15 is_stmt 0 view .LVU822
	movq	%r14, %rdx
	xorl	%esi, %esi
	movq	%rax, %rdi
	call	memset
.LVL261:
	.loc 1 782 15 view .LVU823
	jmp	.L225
.LVL262:
.L261:
	.loc 1 782 15 view .LVU824
.LBE414:
.LBE415:
.LBE416:
.LBE423:
.LBE426:
.LBE463:
	.loc 1 19147 5 discriminator 1 view .LVU825
	movl	$.LC21, %ecx
	movl	$19147, %edx
	movl	$.LC8, %esi
	movl	$.LC19, %edi
.LVL263:
	.loc 1 19147 5 discriminator 1 view .LVU826
	call	__assert_fail
.LVL264:
	.cfi_endproc
.LFE84:
	.size	_ZL36ma_device__jack_buffer_size_callbackjPv, .-_ZL36ma_device__jack_buffer_size_callbackjPv
	.section	.rodata.str1.8
	.align 8
.LC23:
	.string	"int ma_device__jack_process_callback(ma_jack_nframes_t, void*)"
	.align 8
.LC24:
	.string	"void ma_device__read_frames_from_client(ma_device*, ma_uint32, void*)"
	.section	.rodata.str1.1
.LC25:
	.string	"frameCount > 0"
	.text
	.p2align 4
	.type	_ZL32ma_device__jack_process_callbackjPv, @function
_ZL32ma_device__jack_process_callbackjPv:
.LVL265:
.LFB87:
	.loc 1 19179 1 is_stmt 1 view -0
	.cfi_startproc
	.loc 1 19179 1 is_stmt 0 view .LVU828
	pushq	%rbp
	.cfi_def_cfa_offset 16
	.cfi_offset 6, -16
	movq	%rsp, %rbp
	.cfi_def_cfa_register 6
	pushq	%r15
	pushq	%r14
	pushq	%r13
	pushq	%r12
	pushq	%rbx
	subq	$24, %rsp
	.cfi_offset 15, -24
	.cfi_offset 14, -32
	.cfi_offset 13, -40
	.cfi_offset 12, -48
	.cfi_offset 3, -56
1:	call	mcount
	.loc 1 19179 1 view .LVU829
	.loc 1 19180 5 is_stmt 1 view .LVU830
	.loc 1 19181 5 view .LVU831
	.loc 1 19182 5 view .LVU832
	.loc 1 19184 5 view .LVU833
.LVL266:
	.loc 1 19185 5 view .LVU834
	.loc 1 19179 1 is_stmt 0 view .LVU835
	movl	%edi, %r14d
	movq	%rsi, %r12
	.loc 1 19185 5 view .LVU836
	testq	%rsi, %rsi
	je	.L314
	.loc 1 19187 5 is_stmt 1 view .LVU837
	.loc 1 19187 14 is_stmt 0 view .LVU838
	movq	(%rsi), %rbx
.LVL267:
	.loc 1 19188 5 is_stmt 1 view .LVU839
	testq	%rbx, %rbx
	je	.L315
	.loc 1 19190 5 view .LVU840
.LBB487:
	.loc 1 19190 18 is_stmt 0 view .LVU841
	movl	8(%rsi), %eax
	.loc 1 19190 49 view .LVU842
	leal	-2(%rax), %edx
	.loc 1 19190 5 view .LVU843
	cmpl	$1, %edx
	jbe	.L316
.LVL268:
.L269:
	.loc 1 19190 5 view .LVU844
.LBE487:
	.loc 1 19209 5 is_stmt 1 view .LVU845
.LBB510:
	movl	%eax, %edx
	andl	$-3, %edx
	.loc 1 19209 50 is_stmt 0 view .LVU846
	cmpl	$1, %edx
	je	.L317
.L297:
.LBE510:
	.loc 1 19229 1 view .LVU847
	addq	$24, %rsp
	xorl	%eax, %eax
	popq	%rbx
.LVL269:
	.loc 1 19229 1 view .LVU848
	popq	%r12
.LVL270:
	.loc 1 19229 1 view .LVU849
	popq	%r13
	popq	%r14
.LVL271:
	.loc 1 19229 1 view .LVU850
	popq	%r15
	popq	%rbp
	.cfi_remember_state
	.cfi_def_cfa 7, 8
	ret
.LVL272:
	.p2align 4,,10
	.p2align 3
.L317:
	.cfi_restore_state
.LBB535:
.LBB511:
	.loc 1 19210 9 is_stmt 1 view .LVU851
	.loc 1 19210 71 is_stmt 0 view .LVU852
	movq	3368(%r12), %r8
.LVL273:
.LBB512:
.LBI512:
	.loc 1 29960 18 is_stmt 1 view .LVU853
.LBB513:
	.loc 1 29966 5 is_stmt 0 view .LVU854
	testq	%r8, %r8
	je	.L280
	.loc 1 29970 5 view .LVU855
	cmpl	$3, %eax
	je	.L318
.LVL274:
.LBB514:
.LBI514:
	.loc 1 6941 13 is_stmt 1 view .LVU856
.LBB515:
	.loc 1 6943 5 view .LVU857
	.loc 1 6944 5 view .LVU858
	testl	%r14d, %r14d
	je	.L319
	.loc 1 6945 5 view .LVU859
	.loc 1 6947 5 view .LVU860
.LBB516:
	cmpb	$0, 1884(%r12)
	jne	.L320
.LBE516:
	movq	%r8, %rdx
	movl	%r14d, %esi
	movq	%r12, %rdi
	call	_ZL34ma_device__read_frames_from_clientP9ma_devicejPv.part.0.lto_priv.0
.LVL275:
	.p2align 4,,10
	.p2align 3
.L280:
	.loc 1 6947 5 is_stmt 0 view .LVU861
.LBE515:
.LBE514:
.LBE513:
.LBE512:
.LBB524:
	.loc 1 19213 37 is_stmt 1 discriminator 1 view .LVU862
	movl	1304(%r12), %eax
	testl	%eax, %eax
	je	.L297
	leal	-1(%r14), %eax
	.loc 1 19213 37 is_stmt 0 view .LVU863
	xorl	%r15d, %r15d
	leaq	4(,%rax,4), %rax
	movq	%rax, -56(%rbp)
	jmp	.L292
.LVL276:
	.p2align 4,,10
	.p2align 3
.L286:
.LBB525:
.LBB526:
.LBB527:
	.loc 1 19222 47 view .LVU864
	movl	1304(%r12), %edi
.L287:
	.loc 1 19222 47 view .LVU865
.LBE527:
.LBE526:
.LBE525:
	.loc 1 19213 9 is_stmt 1 discriminator 2 view .LVU866
	addl	$1, %r15d
.LVL277:
	.loc 1 19213 37 discriminator 2 view .LVU867
	cmpl	%edi, %r15d
	jnb	.L297
.LVL278:
.L292:
.LBB530:
	.loc 1 19214 13 view .LVU868
	.loc 1 19214 102 is_stmt 0 view .LVU869
	movq	3352(%r12), %rax
	.loc 1 19214 150 view .LVU870
	movl	%r15d, %r13d
	.loc 1 19214 102 view .LVU871
	movl	%r14d, %esi
	movq	(%rax,%r13,8), %rdi
	call	*544(%rbx)
.LVL279:
	.loc 1 19215 13 is_stmt 1 view .LVU872
.LBB529:
	testq	%rax, %rax
	je	.L286
.LBB528:
	.loc 1 19216 17 view .LVU873
	.loc 1 19216 30 is_stmt 0 view .LVU874
	movq	3368(%r12), %rcx
	.loc 1 19222 47 view .LVU875
	movl	1304(%r12), %edi
	.loc 1 19216 30 view .LVU876
	leaq	(%rcx,%r13,4), %rdx
.LVL280:
	.loc 1 19217 17 is_stmt 1 view .LVU877
	.loc 1 19218 17 view .LVU878
	.loc 1 19218 41 view .LVU879
	testl	%r14d, %r14d
	je	.L287
	movq	-56(%rbp), %rsi
	.loc 1 19222 47 is_stmt 0 view .LVU880
	movl	%edi, %ecx
	.loc 1 19222 26 view .LVU881
	salq	$2, %rcx
	addq	%rax, %rsi
	cmpl	$1, %edi
	jne	.L289
	.p2align 4,,10
	.p2align 3
.L291:
	.loc 1 19219 21 is_stmt 1 view .LVU882
	.loc 1 19219 29 is_stmt 0 view .LVU883
	movss	(%rdx), %xmm0
	.loc 1 19221 26 view .LVU884
	addq	$4, %rax
.LVL281:
	.loc 1 19222 26 view .LVU885
	addq	%rcx, %rdx
.LVL282:
	.loc 1 19219 27 view .LVU886
	movss	%xmm0, -4(%rax)
	.loc 1 19221 21 is_stmt 1 view .LVU887
.LVL283:
	.loc 1 19222 21 view .LVU888
	.loc 1 19218 17 view .LVU889
	.loc 1 19218 41 view .LVU890
	cmpq	%rax, %rsi
	jne	.L291
	jmp	.L287
	.p2align 4,,10
	.p2align 3
.L289:
	.loc 1 19219 21 discriminator 2 view .LVU891
	.loc 1 19219 29 is_stmt 0 discriminator 2 view .LVU892
	movss	(%rdx), %xmm0
	.loc 1 19221 26 discriminator 2 view .LVU893
	addq	$4, %rax
.LVL284:
	.loc 1 19222 26 discriminator 2 view .LVU894
	addq	%rcx, %rdx
.LVL285:
	.loc 1 19219 27 discriminator 2 view .LVU895
	movss	%xmm0, -4(%rax)
	.loc 1 19221 21 is_stmt 1 discriminator 2 view .LVU896
.LVL286:
	.loc 1 19222 21 discriminator 2 view .LVU897
	.loc 1 19218 17 discriminator 2 view .LVU898
	.loc 1 19218 41 discriminator 2 view .LVU899
	cmpq	%rax, %rsi
	jne	.L289
	jmp	.L287
.LVL287:
	.p2align 4,,10
	.p2align 3
.L316:
	.loc 1 19218 41 is_stmt 0 discriminator 2 view .LVU900
.LBE528:
.LBE529:
.LBE530:
.LBE524:
.LBE511:
.LBE535:
.LBB536:
.LBB488:
.LBB489:
	.loc 1 19192 37 is_stmt 1 view .LVU901
	movl	2736(%rsi), %edx
	testl	%edx, %edx
	je	.L270
	leal	-1(%rdi), %eax
	.loc 1 19192 23 is_stmt 0 view .LVU902
	xorl	%r15d, %r15d
	leaq	4(,%rax,4), %rax
	movq	%rax, -56(%rbp)
	jmp	.L277
.LVL288:
	.p2align 4,,10
	.p2align 3
.L271:
.LBB490:
.LBB491:
.LBB492:
	.loc 1 19200 46 view .LVU903
	movl	2736(%r12), %edi
.L272:
	.loc 1 19200 46 view .LVU904
.LBE492:
.LBE491:
.LBE490:
	.loc 1 19192 9 is_stmt 1 discriminator 2 view .LVU905
	addl	$1, %r15d
.LVL289:
	.loc 1 19192 37 discriminator 2 view .LVU906
	cmpl	%edi, %r15d
	jnb	.L321
.LVL290:
.L277:
.LBB497:
	.loc 1 19193 13 view .LVU907
	.loc 1 19193 114 is_stmt 0 view .LVU908
	movq	3360(%r12), %rax
	.loc 1 19193 161 view .LVU909
	movl	%r15d, %r13d
	.loc 1 19193 114 view .LVU910
	movl	%r14d, %esi
	movq	(%rax,%r13,8), %rdi
	call	*544(%rbx)
.LVL291:
	.loc 1 19194 13 is_stmt 1 view .LVU911
.LBB495:
	testq	%rax, %rax
	je	.L271
.LBB493:
	.loc 1 19195 17 view .LVU912
	.loc 1 19195 24 is_stmt 0 view .LVU913
	movq	3376(%r12), %rcx
	.loc 1 19200 46 view .LVU914
	movl	2736(%r12), %edi
	.loc 1 19195 24 view .LVU915
	leaq	(%rcx,%r13,4), %rdx
.LVL292:
	.loc 1 19196 17 is_stmt 1 view .LVU916
	.loc 1 19197 17 view .LVU917
	.loc 1 19197 41 view .LVU918
	testl	%r14d, %r14d
	je	.L272
	movq	-56(%rbp), %rsi
	.loc 1 19200 46 is_stmt 0 view .LVU919
	movl	%edi, %ecx
	.loc 1 19200 26 view .LVU920
	salq	$2, %rcx
	addq	%rax, %rsi
	cmpl	$1, %edi
	jne	.L274
	.p2align 4,,10
	.p2align 3
.L276:
	.loc 1 19198 21 is_stmt 1 view .LVU921
	.loc 1 19198 29 is_stmt 0 view .LVU922
	movss	(%rax), %xmm0
	.loc 1 19201 26 view .LVU923
	addq	$4, %rax
.LVL293:
	.loc 1 19198 27 view .LVU924
	movss	%xmm0, (%rdx)
	.loc 1 19200 21 is_stmt 1 view .LVU925
	.loc 1 19200 26 is_stmt 0 view .LVU926
	addq	%rcx, %rdx
.LVL294:
	.loc 1 19201 21 is_stmt 1 view .LVU927
	.loc 1 19197 17 view .LVU928
	.loc 1 19197 41 view .LVU929
	cmpq	%rax, %rsi
	jne	.L276
.LBE493:
.LBE495:
.LBE497:
	.loc 1 19192 9 view .LVU930
	addl	$1, %r15d
.LVL295:
	.loc 1 19192 37 view .LVU931
	cmpl	%edi, %r15d
	jb	.L277
.LVL296:
.L321:
	.loc 1 19192 37 is_stmt 0 view .LVU932
.LBE489:
.LBB499:
.LBB500:
	.loc 1 29970 18 view .LVU933
	movl	8(%r12), %eax
.LVL297:
.L270:
	.loc 1 29970 18 view .LVU934
.LBE500:
.LBE499:
	.loc 1 19206 9 is_stmt 1 view .LVU935
	.loc 1 19206 77 is_stmt 0 view .LVU936
	movq	3376(%r12), %rdx
.LVL298:
.LBB505:
.LBI499:
	.loc 1 29960 18 is_stmt 1 view .LVU937
.LBB503:
	.loc 1 29966 5 is_stmt 0 view .LVU938
	testq	%rdx, %rdx
	je	.L269
	.loc 1 29970 5 view .LVU939
	cmpl	$3, %eax
	je	.L322
	.loc 1 29979 9 view .LVU940
	leal	-2(%rax), %ecx
	.loc 1 29979 53 view .LVU941
	andl	$-3, %ecx
	jne	.L269
	.loc 1 29984 45 view .LVU942
	movl	%r14d, %esi
	movq	%r12, %rdi
	call	_ZL32ma_device__send_frames_to_clientP9ma_devicejPKv.lto_priv.0
.LVL299:
	.loc 1 29984 45 view .LVU943
.LBE503:
.LBE505:
.LBE488:
.LBE536:
.LBB537:
	.loc 1 19209 18 view .LVU944
	movl	8(%r12), %eax
	jmp	.L269
.LVL300:
	.p2align 4,,10
	.p2align 3
.L274:
	.loc 1 19209 18 view .LVU945
.LBE537:
.LBB538:
.LBB508:
.LBB506:
.LBB498:
.LBB496:
.LBB494:
	.loc 1 19198 21 is_stmt 1 discriminator 2 view .LVU946
	.loc 1 19198 29 is_stmt 0 discriminator 2 view .LVU947
	movss	(%rax), %xmm0
	.loc 1 19201 26 discriminator 2 view .LVU948
	addq	$4, %rax
.LVL301:
	.loc 1 19198 27 discriminator 2 view .LVU949
	movss	%xmm0, (%rdx)
	.loc 1 19200 21 is_stmt 1 discriminator 2 view .LVU950
	.loc 1 19200 26 is_stmt 0 discriminator 2 view .LVU951
	addq	%rcx, %rdx
.LVL302:
	.loc 1 19201 21 is_stmt 1 discriminator 2 view .LVU952
	.loc 1 19197 17 discriminator 2 view .LVU953
	.loc 1 19197 41 discriminator 2 view .LVU954
	cmpq	%rax, %rsi
	jne	.L274
	jmp	.L272
.LVL303:
.L318:
	.loc 1 19197 41 is_stmt 0 discriminator 2 view .LVU955
.LBE494:
.LBE496:
.LBE498:
.LBE506:
.LBE508:
.LBE538:
.LBB539:
.LBB533:
.LBB531:
.LBB522:
.LBB519:
.LBI519:
	.loc 1 29960 18 is_stmt 1 view .LVU956
.LBB520:
	.loc 1 29976 55 is_stmt 0 view .LVU957
	leaq	408(%r12), %rcx
	movq	%r8, %rdx
	movl	%r14d, %esi
	movq	%r12, %rdi
	call	_ZL42ma_device__handle_duplex_callback_playbackP9ma_devicejPvP9ma_pcm_rb.isra.0
.LVL304:
	.loc 1 29976 55 view .LVU958
	jmp	.L280
.LVL305:
.L322:
	.loc 1 29976 55 view .LVU959
.LBE520:
.LBE519:
.LBE522:
.LBE531:
.LBE533:
.LBE539:
.LBB540:
.LBB509:
.LBB507:
.LBB504:
.LBB501:
.LBI501:
	.loc 1 29960 18 is_stmt 1 view .LVU960
.LBB502:
	.loc 1 29972 54 is_stmt 0 view .LVU961
	leaq	408(%r12), %rcx
	movl	%r14d, %esi
	movq	%r12, %rdi
	call	_ZL41ma_device__handle_duplex_callback_captureP9ma_devicejPKvP9ma_pcm_rb.isra.0
.LVL306:
	.loc 1 29972 54 view .LVU962
.LBE502:
.LBE501:
.LBE504:
.LBE507:
.LBE509:
.LBE540:
.LBB541:
	.loc 1 19209 18 view .LVU963
	movl	8(%r12), %eax
	jmp	.L269
.LVL307:
.L320:
.LBB534:
.LBB532:
.LBB523:
.LBB521:
.LBB518:
.LBB517:
	.loc 1 6948 9 is_stmt 1 view .LVU964
	.loc 1 6948 40 is_stmt 0 view .LVU965
	movl	%r14d, %edx
	movq	%r8, %rsi
	movq	%r12, %rdi
	call	_ZL31ma_device__handle_data_callbackP9ma_devicePvPKvj.constprop.1
.LVL308:
	.loc 1 6948 40 view .LVU966
	jmp	.L280
.LVL309:
.L319:
	.loc 1 6948 40 view .LVU967
.LBE517:
	.loc 1 6944 5 view .LVU968
	movl	$.LC24, %ecx
	movl	$6944, %edx
	movl	$.LC8, %esi
	movl	$.LC25, %edi
	call	__assert_fail
.LVL310:
.L315:
	.loc 1 6944 5 view .LVU969
.LBE518:
.LBE521:
.LBE523:
.LBE532:
.LBE534:
.LBE541:
	.loc 1 19188 5 discriminator 1 view .LVU970
	movl	$.LC23, %ecx
	movl	$19188, %edx
	movl	$.LC8, %esi
.LVL311:
	.loc 1 19188 5 discriminator 1 view .LVU971
	movl	$.LC9, %edi
.LVL312:
	.loc 1 19188 5 discriminator 1 view .LVU972
	call	__assert_fail
.LVL313:
.L314:
	.loc 1 19185 5 discriminator 1 view .LVU973
	movl	$.LC23, %ecx
	movl	$19185, %edx
	movl	$.LC8, %esi
.LVL314:
	.loc 1 19185 5 discriminator 1 view .LVU974
	movl	$.LC19, %edi
.LVL315:
	.loc 1 19185 5 discriminator 1 view .LVU975
	call	__assert_fail
.LVL316:
	.cfi_endproc
.LFE87:
	.size	_ZL32ma_device__jack_process_callbackjPv, .-_ZL32ma_device__jack_process_callbackjPv
	.section	.rodata.str1.8
	.align 8
.LC26:
	.string	"ma_result ma_device_init__jack(ma_device*, const ma_device_config*, ma_device_descriptor*, ma_device_descriptor*)"
	.section	.rodata.str1.1
.LC27:
	.string	"pConfig != __null"
	.section	.rodata.str1.8
	.align 8
.LC28:
	.string	"[JACK] Loopback mode not supported."
	.align 8
.LC29:
	.string	"[JACK] Only default devices are supported."
	.align 8
.LC30:
	.string	"[JACK] Exclusive mode not supported."
	.align 8
.LC31:
	.string	"[JACK] Failed to set process callback."
	.align 8
.LC32:
	.string	"[JACK] Failed to set buffer size callback."
	.section	.rodata.str1.1
.LC34:
	.string	"capture"
	.section	.rodata.str1.8
	.align 8
.LC35:
	.string	"[JACK] Failed to register ports."
	.section	.rodata.str1.1
.LC36:
	.string	"playback"
	.text
	.p2align 4
	.type	_ZL20ma_device_init__jackP9ma_devicePK16ma_device_configP20ma_device_descriptorS5_, @function
_ZL20ma_device_init__jackP9ma_devicePK16ma_device_configP20ma_device_descriptorS5_:
.LVL317:
.LFB89:
	.loc 1 19232 1 is_stmt 1 view -0
	.cfi_startproc
	.loc 1 19232 1 is_stmt 0 view .LVU977
	pushq	%rbp
	.cfi_def_cfa_offset 16
	.cfi_offset 6, -16
	movq	%rsp, %rbp
	.cfi_def_cfa_register 6
	pushq	%r15
	pushq	%r14
	pushq	%r13
	pushq	%r12
	pushq	%rbx
	subq	$120, %rsp
	.cfi_offset 15, -24
	.cfi_offset 14, -32
	.cfi_offset 13, -40
	.cfi_offset 12, -48
	.cfi_offset 3, -56
1:	call	mcount
	.loc 1 19232 1 view .LVU978
	.loc 1 19233 5 is_stmt 1 view .LVU979
	.loc 1 19234 5 view .LVU980
	.loc 1 19236 5 view .LVU981
	.loc 1 19232 1 is_stmt 0 view .LVU982
	movq	%rsi, -128(%rbp)
	movq	%rdi, %r12
	movq	%rdx, %r13
	movq	%rcx, %r14
	.loc 1 19236 5 view .LVU983
	testq	%rsi, %rsi
	je	.L484
	.loc 1 19237 5 is_stmt 1 view .LVU984
	testq	%rdi, %rdi
	je	.L485
	.loc 1 19239 5 view .LVU985
	.loc 1 19239 18 is_stmt 0 view .LVU986
	movl	(%rsi), %eax
.LBB680:
.LBB681:
.LBB682:
	.loc 1 29685 21 view .LVU987
	movq	(%rdi), %rdi
.LVL318:
	.loc 1 29685 21 view .LVU988
.LBE682:
.LBE681:
.LBE680:
	.loc 1 19239 5 view .LVU989
	cmpl	$4, %eax
	je	.L486
	.loc 1 19245 5 is_stmt 1 view .LVU990
	.loc 1 19245 58 is_stmt 0 view .LVU991
	movl	%eax, %edx
.LVL319:
	.loc 1 19245 58 view .LVU992
	andl	$-3, %edx
	.loc 1 19245 5 view .LVU993
	cmpl	$1, %edx
	je	.L487
	.loc 1 19246 58 view .LVU994
	subl	$2, %eax
	.loc 1 19245 195 view .LVU995
	cmpl	$1, %eax
	jbe	.L488
.LVL320:
.L334:
	.loc 1 19259 5 is_stmt 1 view .LVU996
	.loc 1 19259 82 is_stmt 0 view .LVU997
	leaq	3344(%r12), %rsi
	.loc 1 19259 42 view .LVU998
	call	_ZL28ma_context_open_client__jackP10ma_contextPP16ma_jack_client_t
.LVL321:
	movl	%eax, -116(%rbp)
.LVL322:
	.loc 1 19260 5 is_stmt 1 view .LVU999
	testl	%eax, %eax
	jne	.L489
	.loc 1 19266 5 view .LVU1000
	.loc 1 19266 69 is_stmt 0 view .LVU1001
	movq	(%r12), %rax
.LVL323:
	.loc 1 19266 95 view .LVU1002
	movq	3344(%r12), %rdi
	movq	%r12, %rdx
	movl	$_ZL32ma_device__jack_process_callbackjPv, %esi
	call	*456(%rax)
.LVL324:
	.loc 1 19266 5 view .LVU1003
	testl	%eax, %eax
	jne	.L490
	.loc 1 19270 5 is_stmt 1 view .LVU1004
	.loc 1 19270 73 is_stmt 0 view .LVU1005
	movq	(%r12), %rax
	.loc 1 19270 103 view .LVU1006
	movq	3344(%r12), %rdi
	movq	%r12, %rdx
	movl	$_ZL36ma_device__jack_buffer_size_callbackjPv, %esi
	call	*464(%rax)
.LVL325:
	movl	%eax, -116(%rbp)
.LVL326:
	.loc 1 19270 5 view .LVU1007
	testl	%eax, %eax
	jne	.L491
	.loc 1 19275 5 is_stmt 1 view .LVU1008
	.loc 1 19275 56 is_stmt 0 view .LVU1009
	movq	(%r12), %rax
	.loc 1 19275 73 view .LVU1010
	movq	%r12, %rdx
	movl	$_ZL33ma_device__jack_shutdown_callbackPv, %esi
	movq	3344(%r12), %rdi
	call	*472(%rax)
.LVL327:
	.loc 1 19279 5 is_stmt 1 view .LVU1011
	.loc 1 19279 81 is_stmt 0 view .LVU1012
	movq	(%r12), %rax
	.loc 1 19279 102 view .LVU1013
	movq	3344(%r12), %rdi
	call	*488(%rax)
.LVL328:
	movl	%eax, -120(%rbp)
.LVL329:
	.loc 1 19281 5 is_stmt 1 view .LVU1014
.LBB687:
	.loc 1 19281 18 is_stmt 0 view .LVU1015
	movq	-128(%rbp), %rax
.LVL330:
	.loc 1 19281 18 view .LVU1016
	movl	(%rax), %eax
	.loc 1 19281 55 view .LVU1017
	leal	-2(%rax), %edx
	.loc 1 19281 5 view .LVU1018
	cmpl	$1, %edx
	jbe	.L492
.LVL331:
.L346:
	.loc 1 19281 5 view .LVU1019
.LBE687:
	.loc 1 19332 5 is_stmt 1 view .LVU1020
.LBB771:
	andl	$-3, %eax
	.loc 1 19332 56 is_stmt 0 view .LVU1021
	cmpl	$1, %eax
	jne	.L323
.LBB772:
	.loc 1 19333 9 is_stmt 1 view .LVU1022
	.loc 1 19334 9 view .LVU1023
	.loc 1 19336 9 view .LVU1024
	.loc 1 19337 9 view .LVU1025
	.loc 1 19336 41 is_stmt 0 view .LVU1026
	movq	.LC33(%rip), %rax
	movq	%rax, 12(%r13)
	.loc 1 19338 9 is_stmt 1 view .LVU1027
	.loc 1 19338 98 is_stmt 0 view .LVU1028
	movq	(%r12), %rax
	.loc 1 19338 119 view .LVU1029
	movq	3344(%r12), %rdi
	call	*480(%rax)
.LVL332:
	.loc 1 19339 37 view .LVU1030
	movl	16(%r13), %esi
	.loc 1 19338 41 view .LVU1031
	movl	%eax, 20(%r13)
	.loc 1 19339 9 is_stmt 1 view .LVU1032
.LVL333:
.LBB773:
.LBI773:
	.loc 1 42992 13 view .LVU1033
.LBB774:
	.loc 1 42994 5 view .LVU1034
	.loc 1 42996 5 view .LVU1035
	.loc 1 42996 51 is_stmt 0 view .LVU1036
	testl	%esi, %esi
	je	.L369
.LBE774:
.LBE773:
	.loc 1 19339 89 view .LVU1037
	leaq	24(%r13), %rdi
.LVL334:
.LBB776:
.LBB775:
	.loc 1 19339 89 view .LVU1038
	call	ma_channel_map_init_standard.part.0.constprop.1
.LVL335:
.L369:
	.loc 1 19339 89 view .LVU1039
.LBE775:
.LBE776:
	.loc 1 19341 9 is_stmt 1 view .LVU1040
	.loc 1 19341 68 is_stmt 0 view .LVU1041
	movq	(%r12), %rax
	.loc 1 19341 83 view .LVU1042
	movl	$5, %ecx
	movl	$.LC16, %edx
	xorl	%esi, %esi
	movq	3344(%r12), %rdi
	call	*496(%rax)
.LVL336:
	movq	%rax, -136(%rbp)
.LVL337:
	.loc 1 19342 9 is_stmt 1 view .LVU1043
	testq	%rax, %rax
	je	.L482
	.loc 1 19348 45 is_stmt 0 view .LVU1044
	movl	16(%r13), %edx
	movq	%rax, %rsi
	.loc 1 19348 9 is_stmt 1 view .LVU1045
	.loc 1 19348 55 view .LVU1046
	cmpq	$0, (%rsi,%rdx,8)
	.loc 1 19348 45 is_stmt 0 view .LVU1047
	movq	%rdx, %rax
.LVL338:
	.loc 1 19348 53 view .LVU1048
	leaq	0(,%rdx,8), %rdi
	.loc 1 19348 55 view .LVU1049
	je	.L372
	addl	$1, %eax
	.p2align 4,,10
	.p2align 3
.L373:
	.loc 1 19349 13 is_stmt 1 view .LVU1050
	.loc 1 19348 9 view .LVU1051
	.loc 1 19348 55 view .LVU1052
	.loc 1 19348 45 is_stmt 0 view .LVU1053
	movl	%eax, %edx
	movl	%eax, %ecx
	.loc 1 19348 55 view .LVU1054
	addl	$1, %eax
	cmpq	$0, (%rsi,%rdx,8)
	.loc 1 19348 53 view .LVU1055
	leaq	0(,%rdx,8), %rdi
	.loc 1 19348 55 view .LVU1056
	jne	.L373
	movl	%ecx, 16(%r13)
.L372:
	.loc 1 19352 9 is_stmt 1 view .LVU1057
	.loc 1 19352 142 is_stmt 0 view .LVU1058
	movq	(%r12), %rax
.LVL339:
.LBB777:
.LBI777:
	.loc 1 44050 14 is_stmt 1 view .LVU1059
.LBB778:
	.loc 1 44052 5 view .LVU1060
	.loc 1 44053 9 view .LVU1061
	.loc 1 44053 35 is_stmt 0 view .LVU1062
	movq	296(%rax), %rdx
	.loc 1 44053 9 view .LVU1063
	testq	%rdx, %rdx
	je	.L493
	.loc 1 44054 13 is_stmt 1 view .LVU1064
	.loc 1 44054 50 is_stmt 0 view .LVU1065
	movq	288(%rax), %rsi
.LVL340:
	.loc 1 44054 50 view .LVU1066
	call	*%rdx
.LVL341:
	.loc 1 44054 50 view .LVU1067
.LBE778:
.LBE777:
	.loc 1 19352 39 view .LVU1068
	movq	%rax, 3352(%r12)
	.loc 1 19353 9 is_stmt 1 view .LVU1069
	testq	%rax, %rax
	je	.L494
.LVL342:
.LBB779:
	.loc 1 19358 31 view .LVU1070
	movl	16(%r13), %eax
	.loc 1 19358 20 is_stmt 0 view .LVU1071
	xorl	%r14d, %r14d
	leaq	-112(%rbp), %rbx
	.loc 1 19358 31 view .LVU1072
	testl	%eax, %eax
	je	.L391
	movq	%r13, -128(%rbp)
.LVL343:
	.p2align 4,,10
	.p2align 3
.L377:
.LBB780:
.LBB781:
.LBB782:
.LBB783:
.LBB784:
	.loc 1 934 12 view .LVU1073
	xorl	%eax, %eax
	.loc 1 934 44 view .LVU1074
	movl	$112, %edx
	jmp	.L380
.LVL344:
	.p2align 4,,10
	.p2align 3
.L473:
	.loc 1 934 44 view .LVU1075
	movzbl	.LC36(%rax), %edx
	.loc 1 934 36 view .LVU1076
	testb	%dl, %dl
	je	.L381
.LVL345:
.L380:
	.loc 1 935 16 view .LVU1077
	movb	%dl, (%rbx,%rax)
	.loc 1 934 5 view .LVU1078
	addq	$1, %rax
.LVL346:
	.loc 1 934 36 view .LVU1079
	cmpq	$64, %rax
	jne	.L473
	.loc 1 943 12 view .LVU1080
	movb	$0, -112(%rbp)
.L393:
.LVL347:
	.loc 1 943 12 view .LVU1081
.LBE784:
.LBE783:
.LBE782:
.LBE781:
	.loc 1 19361 13 is_stmt 1 view .LVU1082
	.loc 1 19361 22 is_stmt 0 view .LVU1083
	movl	$56, %edx
	leaq	-104(%rbp), %rsi
	movl	%r14d, %edi
	.loc 1 19363 43 view .LVU1084
	movl	%r14d, %r15d
	.loc 1 19361 22 view .LVU1085
	call	_Z9ma_itoa_siPcmi.constprop.0
.LVL348:
	.loc 1 19363 13 is_stmt 1 view .LVU1086
	.loc 1 19363 124 is_stmt 0 view .LVU1087
	xorl	%r8d, %r8d
	movl	$2, %ecx
	movq	%rbx, %rsi
	.loc 1 19363 48 view .LVU1088
	movq	3352(%r12), %rax
	.loc 1 19363 124 view .LVU1089
	movq	3344(%r12), %rdi
	movl	$.LC16, %edx
	.loc 1 19363 48 view .LVU1090
	leaq	(%rax,%r15,8), %r13
	.loc 1 19363 105 view .LVU1091
	movq	(%r12), %rax
	.loc 1 19363 124 view .LVU1092
	call	*528(%rax)
.LVL349:
	.loc 1 19363 50 view .LVU1093
	movq	%rax, 0(%r13)
	.loc 1 19364 13 is_stmt 1 view .LVU1094
	.loc 1 19364 52 is_stmt 0 view .LVU1095
	movq	3352(%r12), %rax
	.loc 1 19364 13 view .LVU1096
	cmpq	$0, (%rax,%r15,8)
	je	.L495
.LBE780:
	.loc 1 19358 9 is_stmt 1 view .LVU1097
	.loc 1 19358 31 is_stmt 0 view .LVU1098
	movq	-128(%rbp), %rax
	.loc 1 19358 70 view .LVU1099
	addl	$1, %r14d
.LVL350:
	.loc 1 19358 31 is_stmt 1 view .LVU1100
	cmpl	%r14d, 16(%rax)
	ja	.L377
	movq	%rax, %r13
.LVL351:
.L391:
	.loc 1 19358 31 is_stmt 0 view .LVU1101
.LBE779:
	.loc 1 19372 9 is_stmt 1 view .LVU1102
	.loc 1 19372 53 is_stmt 0 view .LVU1103
	movq	(%r12), %rax
	.loc 1 19372 63 view .LVU1104
	movq	-136(%rbp), %rdi
	call	*552(%rax)
.LVL352:
	.loc 1 19374 9 is_stmt 1 view .LVU1105
	.loc 1 19377 207 is_stmt 0 view .LVU1106
	movq	(%r12), %rcx
	.loc 1 19374 49 view .LVU1107
	movl	-120(%rbp), %esi
.LBB834:
.LBB835:
.LBB836:
.LBB837:
	.loc 1 44156 15 view .LVU1108
	movabsq	$17179869188, %rax
	movq	%rax, -96(%rbp)
	.loc 1 44164 24 view .LVU1109
	movslq	12(%r13), %rax
	.loc 1 44156 15 view .LVU1110
	movdqa	.LC22(%rip), %xmm0
.LBE837:
.LBE836:
.LBE835:
.LBE834:
	.loc 1 19374 49 view .LVU1111
	movl	%esi, 280(%r13)
	.loc 1 19375 9 is_stmt 1 view .LVU1112
	.loc 1 19375 49 is_stmt 0 view .LVU1113
	movl	$1, 288(%r13)
	.loc 1 19377 9 is_stmt 1 view .LVU1114
.LVL353:
.LBB842:
.LBI834:
	.file 2 "/home/user/Documents/_code_/Grume/source/3rd_party/miniaudio.hpp"
	.loc 2 2066 28 view .LVU1115
.LBB840:
	.loc 2 2066 91 view .LVU1116
.LBB839:
.LBI836:
	.loc 1 44154 18 view .LVU1117
.LBB838:
	.loc 1 44156 5 view .LVU1118
	.loc 1 44164 5 view .LVU1119
	.loc 1 44156 15 is_stmt 0 view .LVU1120
	movaps	%xmm0, -112(%rbp)
	.loc 1 44164 24 view .LVU1121
	movl	-112(%rbp,%rax,4), %edx
.LVL354:
	.loc 1 44164 24 view .LVU1122
.LBE838:
.LBE839:
	.loc 2 2066 132 view .LVU1123
	imull	16(%r13), %edx
.LBE840:
.LBE842:
.LBB843:
.LBB844:
.LBB845:
.LBB846:
	.loc 1 44053 35 view .LVU1124
	movq	296(%rcx), %rax
.LBE846:
.LBE845:
.LBE844:
.LBE843:
.LBB856:
.LBB841:
	.loc 2 2066 132 view .LVU1125
	movl	%edx, %r13d
.LBE841:
.LBE856:
	.loc 1 19377 70 view .LVU1126
	imull	%esi, %r13d
.LVL355:
.LBB857:
.LBI843:
	.loc 1 44063 14 is_stmt 1 view .LVU1127
.LBB853:
	.loc 1 44065 5 view .LVU1128
.LBB848:
.LBI845:
	.loc 1 44050 14 view .LVU1129
.LBB847:
	.loc 1 44052 5 view .LVU1130
	.loc 1 44053 9 view .LVU1131
	testq	%rax, %rax
	je	.L379
	.loc 1 44054 13 view .LVU1132
	.loc 1 44054 50 is_stmt 0 view .LVU1133
	movq	288(%rcx), %rsi
	movq	%r13, %rdi
	call	*%rax
.LVL356:
	.loc 1 44054 50 view .LVU1134
	movq	%rax, %rcx
.LVL357:
	.loc 1 44054 50 view .LVU1135
.LBE847:
.LBE848:
	.loc 1 44066 5 is_stmt 1 view .LVU1136
	testq	%rax, %rax
	je	.L379
	.loc 1 44067 9 view .LVU1137
.LVL358:
.LBB849:
.LBI849:
	.loc 1 776 23 view .LVU1138
.LBB850:
	.loc 1 781 5 view .LVU1139
	testq	%r13, %r13
	jne	.L496
.LVL359:
.L392:
	.loc 1 781 5 is_stmt 0 view .LVU1140
.LBE850:
.LBE849:
	.loc 1 44070 5 is_stmt 1 view .LVU1141
	.loc 1 44070 5 is_stmt 0 view .LVU1142
.LBE853:
.LBE857:
	.loc 1 19377 51 view .LVU1143
	movq	%rcx, 3368(%r12)
	.loc 1 19378 9 is_stmt 1 view .LVU1144
.LVL360:
.L323:
	.loc 1 19378 9 is_stmt 0 view .LVU1145
.LBE772:
.LBE771:
	.loc 1 19385 1 view .LVU1146
	movl	-116(%rbp), %eax
	addq	$120, %rsp
	popq	%rbx
	popq	%r12
	popq	%r13
	popq	%r14
	popq	%r15
	popq	%rbp
	.cfi_remember_state
	.cfi_def_cfa 7, 8
	ret
.LVL361:
	.p2align 4,,10
	.p2align 3
.L487:
	.cfi_restore_state
	.loc 1 19245 131 discriminator 1 view .LVU1147
	movq	0(%r13), %rcx
.LVL362:
	.loc 1 19245 107 discriminator 1 view .LVU1148
	testq	%rcx, %rcx
	je	.L330
	.loc 1 19245 149 discriminator 3 view .LVU1149
	movl	(%rcx), %esi
.LVL363:
	.loc 1 19245 149 discriminator 3 view .LVU1150
	testl	%esi, %esi
	jne	.L331
.L330:
	.loc 1 19246 58 view .LVU1151
	subl	$2, %eax
	.loc 1 19245 195 view .LVU1152
	cmpl	$1, %eax
	jbe	.L497
	.loc 1 19252 107 view .LVU1153
	cmpl	$1, 8(%r13)
	jne	.L334
.L396:
	.loc 1 19254 9 is_stmt 1 view .LVU1154
.LVL364:
.LBB884:
.LBI884:
	.loc 1 29688 16 view .LVU1155
.LBE884:
	.loc 1 29690 5 view .LVU1156
	.loc 1 29681 5 view .LVU1157
	.loc 1 29685 5 view .LVU1158
.LBB887:
.LBB885:
.LBI885:
	.loc 1 28929 16 view .LVU1159
.LBB886:
	.loc 1 28931 5 view .LVU1160
	testq	%rdi, %rdi
	je	.L335
	.loc 1 28935 5 view .LVU1161
	.loc 1 28935 22 is_stmt 0 view .LVU1162
	movq	112(%rdi), %rdi
.L335:
.LVL365:
	.loc 1 28935 22 view .LVU1163
.LBE886:
.LBE885:
.LBE887:
	.loc 1 19254 20 view .LVU1164
	movl	$.LC30, %edx
	movl	$1, %esi
	call	ma_log_post
.LVL366:
	.loc 1 19255 9 is_stmt 1 view .LVU1165
	.loc 1 19255 16 is_stmt 0 view .LVU1166
	movl	$-102, -116(%rbp)
	jmp	.L323
.LVL367:
	.p2align 4,,10
	.p2align 3
.L381:
.LBB888:
.LBB872:
.LBB858:
.LBB828:
.LBB788:
.LBB787:
.LBB786:
.LBB785:
	.loc 1 939 16 view .LVU1167
	movb	$0, -112(%rbp,%rax)
	.loc 1 940 16 view .LVU1168
	jmp	.L393
.LVL368:
	.p2align 4,,10
	.p2align 3
.L489:
	.loc 1 940 16 view .LVU1169
.LBE785:
.LBE786:
.LBE787:
.LBE788:
.LBE828:
.LBE858:
.LBE872:
.LBE888:
	.loc 1 19261 9 is_stmt 1 view .LVU1170
.LBB889:
.LBI889:
	.loc 1 29688 16 view .LVU1171
.LBE889:
	.loc 1 29690 5 view .LVU1172
.LBB894:
.LBB890:
.LBI890:
	.loc 1 29679 20 view .LVU1173
.LBB891:
	.loc 1 29681 5 view .LVU1174
	.loc 1 29685 5 view .LVU1175
	.loc 1 29685 21 is_stmt 0 view .LVU1176
	movq	(%r12), %rax
.LVL369:
	.loc 1 29685 21 view .LVU1177
.LBE891:
.LBE890:
.LBB892:
.LBI892:
	.loc 1 28929 16 is_stmt 1 view .LVU1178
.LBB893:
	.loc 1 28931 5 view .LVU1179
	testq	%rax, %rax
	je	.L323
	.loc 1 28935 5 view .LVU1180
	.loc 1 28935 22 is_stmt 0 view .LVU1181
	movq	112(%rax), %r14
.LVL370:
	.loc 1 28935 22 view .LVU1182
.LBE893:
.LBE892:
.LBE894:
.LBB895:
.LBI895:
	.loc 1 2100 18 is_stmt 1 view .LVU1183
.LBB896:
	.loc 1 2102 5 view .LVU1184
	testq	%r14, %r14
	je	.L323
	.loc 1 2106 5 view .LVU1185
.LVL371:
.LBB897:
.LBI897:
	.loc 1 2031 13 view .LVU1186
.LBB898:
	.loc 1 2034 5 view .LVU1187
	.loc 1 2034 18 is_stmt 0 view .LVU1188
	leaq	104(%r14), %r13
.LVL372:
.LBB899:
.LBI899:
	.loc 1 4800 13 is_stmt 1 view .LVU1189
.LBE899:
.LBE898:
.LBE897:
.LBE896:
.LBE895:
	.loc 1 4802 5 view .LVU1190
	.loc 1 4811 5 view .LVU1191
.LBB923:
.LBB920:
.LBB908:
.LBB906:
.LBB904:
.LBB900:
.LBI900:
	.loc 1 4556 13 view .LVU1192
.LBB901:
	.loc 1 4558 5 view .LVU1193
	leaq	8(%r14), %rbx
.LBE901:
.LBE900:
.LBE904:
.LBE906:
.LBE908:
.LBB909:
	.loc 1 2109 19 is_stmt 0 view .LVU1194
	xorl	%r12d, %r12d
.LVL373:
	.loc 1 2109 19 view .LVU1195
.LBE909:
.LBB910:
.LBB907:
.LBB905:
.LBB903:
.LBB902:
	.loc 1 4558 23 view .LVU1196
	movq	%r13, %rdi
	call	pthread_mutex_lock
.LVL374:
	.loc 1 4558 23 view .LVU1197
.LBE902:
.LBE903:
.LBE905:
.LBE907:
.LBE910:
	.loc 1 2107 5 is_stmt 1 view .LVU1198
.LBB911:
	.loc 1 2108 9 view .LVU1199
	.loc 1 2109 9 view .LVU1200
	.loc 1 2109 29 view .LVU1201
	.loc 1 2109 37 is_stmt 0 view .LVU1202
	movl	64(%r14), %edx
	.loc 1 2109 29 view .LVU1203
	testl	%edx, %edx
	je	.L339
.LVL375:
.L341:
	.loc 1 2110 13 is_stmt 1 view .LVU1204
	.loc 1 2110 39 is_stmt 0 view .LVU1205
	movq	-8(%rbx), %rax
	.loc 1 2110 13 view .LVU1206
	testq	%rax, %rax
	je	.L338
	.loc 1 2111 17 is_stmt 1 view .LVU1207
	.loc 1 2111 44 is_stmt 0 view .LVU1208
	movq	(%rbx), %rdi
	movl	$.LC15, %edx
	.loc 1 2109 57 view .LVU1209
	addl	$1, %r12d
.LVL376:
	.loc 1 2109 29 view .LVU1210
	addq	$16, %rbx
	.loc 1 2111 44 view .LVU1211
	movl	$1, %esi
	call	*%rax
.LVL377:
	.loc 1 2109 37 view .LVU1212
	movl	64(%r14), %edx
	.loc 1 2109 9 is_stmt 1 view .LVU1213
.LVL378:
	.loc 1 2109 29 view .LVU1214
	cmpl	%edx, %r12d
	jb	.L341
.LVL379:
.L339:
	.loc 1 2109 29 is_stmt 0 view .LVU1215
.LBE911:
	.loc 1 2115 5 is_stmt 1 view .LVU1216
.LBB912:
.LBI912:
	.loc 1 2040 13 view .LVU1217
.LBE912:
.LBE920:
.LBE923:
	.loc 1 2043 5 view .LVU1218
.LBB924:
.LBB921:
.LBB917:
.LBB913:
.LBI913:
	.loc 1 4815 13 view .LVU1219
.LBE913:
.LBE917:
.LBE921:
.LBE924:
	.loc 1 4817 5 view .LVU1220
	.loc 1 4826 5 view .LVU1221
.LBB925:
.LBB922:
.LBB918:
.LBB916:
.LBB914:
.LBI914:
	.loc 1 4561 13 view .LVU1222
.LBB915:
	.loc 1 4563 5 view .LVU1223
	.loc 1 4563 25 is_stmt 0 view .LVU1224
	movq	%r13, %rdi
	call	pthread_mutex_unlock
.LVL380:
	.loc 1 4563 25 view .LVU1225
.LBE915:
.LBE914:
.LBE916:
.LBE918:
	.loc 1 2117 5 is_stmt 1 view .LVU1226
	.loc 1 2117 12 is_stmt 0 view .LVU1227
	jmp	.L323
.LVL381:
	.p2align 4,,10
	.p2align 3
.L338:
.LBB919:
	.loc 1 2109 9 is_stmt 1 view .LVU1228
	.loc 1 2109 57 is_stmt 0 view .LVU1229
	addl	$1, %r12d
.LVL382:
	.loc 1 2109 29 is_stmt 1 view .LVU1230
	addq	$16, %rbx
	cmpl	%r12d, %edx
	ja	.L341
	jmp	.L339
.LVL383:
	.p2align 4,,10
	.p2align 3
.L492:
	.loc 1 2109 29 is_stmt 0 view .LVU1231
.LBE919:
.LBE922:
.LBE925:
.LBB926:
.LBB688:
	.loc 1 19282 9 is_stmt 1 view .LVU1232
	.loc 1 19283 9 view .LVU1233
	.loc 1 19285 9 view .LVU1234
	.loc 1 19286 9 view .LVU1235
	.loc 1 19285 40 is_stmt 0 view .LVU1236
	movq	.LC33(%rip), %rax
	movq	%rax, 12(%r14)
	.loc 1 19287 9 is_stmt 1 view .LVU1237
	.loc 1 19287 97 is_stmt 0 view .LVU1238
	movq	(%r12), %rax
	.loc 1 19287 118 view .LVU1239
	movq	3344(%r12), %rdi
	call	*480(%rax)
.LVL384:
	.loc 1 19288 37 view .LVU1240
	movl	16(%r14), %esi
	.loc 1 19287 40 view .LVU1241
	movl	%eax, 20(%r14)
	.loc 1 19288 9 is_stmt 1 view .LVU1242
.LVL385:
.LBB689:
.LBI689:
	.loc 1 42992 13 view .LVU1243
.LBB690:
	.loc 1 42994 5 view .LVU1244
	.loc 1 42996 5 view .LVU1245
	.loc 1 42996 51 is_stmt 0 view .LVU1246
	testl	%esi, %esi
	je	.L347
.LBE690:
.LBE689:
	.loc 1 19288 88 view .LVU1247
	leaq	24(%r14), %rdi
.LVL386:
.LBB692:
.LBB691:
	.loc 1 19288 88 view .LVU1248
	call	ma_channel_map_init_standard.part.0.constprop.1
.LVL387:
.L347:
	.loc 1 19288 88 view .LVU1249
.LBE691:
.LBE692:
	.loc 1 19290 9 is_stmt 1 view .LVU1250
	.loc 1 19290 68 is_stmt 0 view .LVU1251
	movq	(%r12), %rax
	.loc 1 19290 83 view .LVU1252
	movl	$6, %ecx
	movl	$.LC16, %edx
	xorl	%esi, %esi
	movq	3344(%r12), %rdi
	call	*496(%rax)
.LVL388:
	movq	%rax, -144(%rbp)
.LVL389:
	.loc 1 19291 9 is_stmt 1 view .LVU1253
	testq	%rax, %rax
	je	.L482
	.loc 1 19297 44 is_stmt 0 view .LVU1254
	movl	16(%r14), %edx
	movq	%rax, %rsi
	.loc 1 19297 9 is_stmt 1 view .LVU1255
	.loc 1 19297 54 view .LVU1256
	cmpq	$0, (%rsi,%rdx,8)
	.loc 1 19297 44 is_stmt 0 view .LVU1257
	movq	%rdx, %rax
.LVL390:
	.loc 1 19297 52 view .LVU1258
	leaq	0(,%rdx,8), %rdi
	.loc 1 19297 54 view .LVU1259
	je	.L350
	addl	$1, %eax
	.p2align 4,,10
	.p2align 3
.L351:
	.loc 1 19298 13 is_stmt 1 view .LVU1260
	.loc 1 19297 9 view .LVU1261
	.loc 1 19297 54 view .LVU1262
	.loc 1 19297 44 is_stmt 0 view .LVU1263
	movl	%eax, %edx
	movl	%eax, %ecx
	.loc 1 19297 54 view .LVU1264
	addl	$1, %eax
	cmpq	$0, (%rsi,%rdx,8)
	.loc 1 19297 52 view .LVU1265
	leaq	0(,%rdx,8), %rdi
	.loc 1 19297 54 view .LVU1266
	jne	.L351
	movl	%ecx, 16(%r14)
.L350:
	.loc 1 19301 9 is_stmt 1 view .LVU1267
	.loc 1 19301 139 is_stmt 0 view .LVU1268
	movq	(%r12), %rdx
.LVL391:
.LBB693:
.LBI693:
	.loc 1 44050 14 is_stmt 1 view .LVU1269
.LBB694:
	.loc 1 44052 5 view .LVU1270
	.loc 1 44053 9 view .LVU1271
	.loc 1 44053 35 is_stmt 0 view .LVU1272
	movq	296(%rdx), %rax
	.loc 1 44053 9 view .LVU1273
	testq	%rax, %rax
	je	.L498
	.loc 1 44054 13 is_stmt 1 view .LVU1274
	.loc 1 44054 50 is_stmt 0 view .LVU1275
	movq	288(%rdx), %rsi
.LVL392:
	.loc 1 44054 50 view .LVU1276
	call	*%rax
.LVL393:
	.loc 1 44054 50 view .LVU1277
.LBE694:
.LBE693:
	.loc 1 19301 38 view .LVU1278
	movq	%rax, 3360(%r12)
	.loc 1 19302 9 is_stmt 1 view .LVU1279
	testq	%rax, %rax
	je	.L480
.LVL394:
.LBB695:
	.loc 1 19306 31 view .LVU1280
	movl	16(%r14), %edx
	.loc 1 19306 20 is_stmt 0 view .LVU1281
	xorl	%r15d, %r15d
	leaq	-112(%rbp), %rbx
	.loc 1 19306 31 view .LVU1282
	testl	%edx, %edx
	je	.L367
	movq	%r14, -136(%rbp)
	movq	%r13, -152(%rbp)
	movq	%r12, %r13
.LVL395:
	.loc 1 19306 31 view .LVU1283
	movl	%r15d, %r12d
.LVL396:
	.p2align 4,,10
	.p2align 3
.L353:
.LBB696:
.LBB697:
.LBB698:
.LBB699:
.LBB700:
	.loc 1 934 12 view .LVU1284
	xorl	%eax, %eax
	.loc 1 934 44 view .LVU1285
	movl	$99, %edx
	jmp	.L356
.LVL397:
	.p2align 4,,10
	.p2align 3
.L472:
	.loc 1 934 44 view .LVU1286
	movzbl	.LC34(%rax), %edx
	.loc 1 934 36 view .LVU1287
	testb	%dl, %dl
	je	.L357
.LVL398:
.L356:
	.loc 1 935 16 view .LVU1288
	movb	%dl, (%rbx,%rax)
	.loc 1 934 5 view .LVU1289
	addq	$1, %rax
.LVL399:
	.loc 1 934 36 view .LVU1290
	cmpq	$64, %rax
	jne	.L472
	.loc 1 943 12 view .LVU1291
	movb	$0, -112(%rbp)
.L394:
.LVL400:
	.loc 1 943 12 view .LVU1292
.LBE700:
.LBE699:
.LBE698:
.LBE697:
	.loc 1 19309 13 is_stmt 1 view .LVU1293
	.loc 1 19309 22 is_stmt 0 view .LVU1294
	movl	$57, %edx
	leaq	-105(%rbp), %rsi
	movl	%r12d, %edi
	.loc 1 19311 42 view .LVU1295
	movl	%r12d, %r15d
	.loc 1 19309 22 view .LVU1296
	call	_Z9ma_itoa_siPcmi.constprop.0
.LVL401:
	.loc 1 19311 13 is_stmt 1 view .LVU1297
	.loc 1 19311 123 is_stmt 0 view .LVU1298
	xorl	%r8d, %r8d
	movl	$1, %ecx
	movq	%rbx, %rsi
	.loc 1 19311 47 view .LVU1299
	movq	3360(%r13), %rax
	.loc 1 19311 123 view .LVU1300
	movq	3344(%r13), %rdi
	movl	$.LC16, %edx
	.loc 1 19311 47 view .LVU1301
	leaq	(%rax,%r15,8), %r14
	.loc 1 19311 104 view .LVU1302
	movq	0(%r13), %rax
	.loc 1 19311 123 view .LVU1303
	call	*528(%rax)
.LVL402:
	.loc 1 19311 49 view .LVU1304
	movq	%rax, (%r14)
	.loc 1 19312 13 is_stmt 1 view .LVU1305
	.loc 1 19312 51 is_stmt 0 view .LVU1306
	movq	3360(%r13), %rax
	.loc 1 19312 13 view .LVU1307
	cmpq	$0, (%rax,%r15,8)
	je	.L499
.LBE696:
	.loc 1 19306 9 is_stmt 1 view .LVU1308
	.loc 1 19306 31 is_stmt 0 view .LVU1309
	movq	-136(%rbp), %rax
	.loc 1 19306 69 view .LVU1310
	addl	$1, %r12d
.LVL403:
	.loc 1 19306 31 is_stmt 1 view .LVU1311
	cmpl	%r12d, 16(%rax)
	ja	.L353
	movq	%r13, %r12
.LVL404:
	.loc 1 19306 31 is_stmt 0 view .LVU1312
	movq	-152(%rbp), %r13
.LVL405:
	.loc 1 19306 31 view .LVU1313
	movq	%rax, %r14
.LVL406:
.L367:
	.loc 1 19306 31 view .LVU1314
.LBE695:
	.loc 1 19320 9 is_stmt 1 view .LVU1315
	.loc 1 19320 53 is_stmt 0 view .LVU1316
	movq	(%r12), %rax
	.loc 1 19320 63 view .LVU1317
	movq	-144(%rbp), %rdi
	call	*552(%rax)
.LVL407:
	.loc 1 19322 9 is_stmt 1 view .LVU1318
	.loc 1 19325 203 is_stmt 0 view .LVU1319
	movq	(%r12), %rcx
	.loc 1 19322 48 view .LVU1320
	movl	-120(%rbp), %esi
.LBB734:
.LBB735:
.LBB736:
.LBB737:
	.loc 1 44156 15 view .LVU1321
	movabsq	$17179869188, %rax
	movq	%rax, -96(%rbp)
	.loc 1 44164 24 view .LVU1322
	movslq	12(%r14), %rax
	.loc 1 44156 15 view .LVU1323
	movdqa	.LC22(%rip), %xmm0
.LBE737:
.LBE736:
.LBE735:
.LBE734:
	.loc 1 19322 48 view .LVU1324
	movl	%esi, 280(%r14)
	.loc 1 19323 9 is_stmt 1 view .LVU1325
	.loc 1 19323 48 is_stmt 0 view .LVU1326
	movl	$1, 288(%r14)
	.loc 1 19325 9 is_stmt 1 view .LVU1327
.LVL408:
.LBB742:
.LBI734:
	.loc 2 2066 28 view .LVU1328
.LBB740:
	.loc 2 2066 91 view .LVU1329
.LBB739:
.LBI736:
	.loc 1 44154 18 view .LVU1330
.LBB738:
	.loc 1 44156 5 view .LVU1331
	.loc 1 44164 5 view .LVU1332
	.loc 1 44156 15 is_stmt 0 view .LVU1333
	movaps	%xmm0, -112(%rbp)
	.loc 1 44164 24 view .LVU1334
	movl	-112(%rbp,%rax,4), %edx
.LVL409:
	.loc 1 44164 24 view .LVU1335
.LBE738:
.LBE739:
	.loc 2 2066 132 view .LVU1336
	imull	16(%r14), %edx
.LBE740:
.LBE742:
.LBB743:
.LBB744:
.LBB745:
.LBB746:
	.loc 1 44053 35 view .LVU1337
	movq	296(%rcx), %rax
.LBE746:
.LBE745:
.LBE744:
.LBE743:
.LBB756:
.LBB741:
	.loc 2 2066 132 view .LVU1338
	movl	%edx, %r14d
.LBE741:
.LBE756:
	.loc 1 19325 69 view .LVU1339
	imull	%esi, %r14d
.LVL410:
.LBB757:
.LBI743:
	.loc 1 44063 14 is_stmt 1 view .LVU1340
.LBB753:
	.loc 1 44065 5 view .LVU1341
.LBB748:
.LBI745:
	.loc 1 44050 14 view .LVU1342
.LBB747:
	.loc 1 44052 5 view .LVU1343
	.loc 1 44053 9 view .LVU1344
	testq	%rax, %rax
	je	.L355
	.loc 1 44054 13 view .LVU1345
	.loc 1 44054 50 is_stmt 0 view .LVU1346
	movq	288(%rcx), %rsi
	movq	%r14, %rdi
	call	*%rax
.LVL411:
	.loc 1 44054 50 view .LVU1347
	movq	%rax, %rcx
.LVL412:
	.loc 1 44054 50 view .LVU1348
.LBE747:
.LBE748:
	.loc 1 44066 5 is_stmt 1 view .LVU1349
	testq	%rax, %rax
	je	.L355
	.loc 1 44067 9 view .LVU1350
.LVL413:
.LBB749:
.LBI749:
	.loc 1 776 23 view .LVU1351
.LBB750:
	.loc 1 781 5 view .LVU1352
	testq	%r14, %r14
	jne	.L500
.LVL414:
.L368:
	.loc 1 781 5 is_stmt 0 view .LVU1353
.LBE750:
.LBE749:
	.loc 1 44070 5 is_stmt 1 view .LVU1354
	.loc 1 44070 5 is_stmt 0 view .LVU1355
.LBE753:
.LBE757:
.LBE688:
.LBE926:
.LBB927:
	.loc 1 19332 18 view .LVU1356
	movq	-128(%rbp), %rax
.LBE927:
.LBB928:
.LBB764:
	.loc 1 19325 50 view .LVU1357
	movq	%rcx, 3376(%r12)
	.loc 1 19326 9 is_stmt 1 view .LVU1358
.LBE764:
.LBE928:
.LBB929:
	.loc 1 19332 18 is_stmt 0 view .LVU1359
	movl	(%rax), %eax
	jmp	.L346
.LVL415:
	.p2align 4,,10
	.p2align 3
.L357:
	.loc 1 19332 18 view .LVU1360
.LBE929:
.LBB930:
.LBB765:
.LBB758:
.LBB730:
.LBB704:
.LBB703:
.LBB702:
.LBB701:
	.loc 1 939 16 view .LVU1361
	movb	$0, -112(%rbp,%rax)
	.loc 1 940 16 view .LVU1362
	jmp	.L394
.LVL416:
.L488:
	.loc 1 940 16 view .LVU1363
.LBE701:
.LBE702:
.LBE703:
.LBE704:
.LBE730:
.LBE758:
.LBE765:
.LBE930:
	.loc 1 19246 130 view .LVU1364
	movq	(%rcx), %rax
	.loc 1 19246 107 view .LVU1365
	testq	%rax, %rax
	je	.L395
.LVL417:
.L398:
	.loc 1 19246 149 discriminator 1 view .LVU1366
	movl	(%rax), %ecx
	testl	%ecx, %ecx
	jne	.L331
	.loc 1 19252 5 is_stmt 1 view .LVU1367
	cmpl	$1, %edx
	jne	.L395
.L399:
	.loc 1 19252 107 is_stmt 0 view .LVU1368
	cmpl	$1, 8(%r13)
	je	.L396
.L395:
	.loc 1 19253 107 view .LVU1369
	cmpl	$1, 8(%r14)
	jne	.L334
	jmp	.L396
	.p2align 4,,10
	.p2align 3
.L497:
	.loc 1 19246 130 view .LVU1370
	movq	(%r14), %rax
	.loc 1 19246 107 view .LVU1371
	testq	%rax, %rax
	jne	.L398
	jmp	.L399
.LVL418:
.L495:
.LBB931:
.LBB873:
.LBB859:
.LBB829:
	.loc 1 19365 17 is_stmt 1 view .LVU1372
	.loc 1 19365 61 is_stmt 0 view .LVU1373
	movq	(%r12), %rax
	.loc 1 19365 71 view .LVU1374
	movq	-136(%rbp), %rdi
	call	*552(%rax)
.LVL419:
	.loc 1 19366 17 is_stmt 1 view .LVU1375
	.loc 1 19366 39 is_stmt 0 view .LVU1376
	movq	%r12, %rdi
	call	_ZL22ma_device_uninit__jackP9ma_device
.LVL420:
	.loc 1 19367 17 is_stmt 1 view .LVU1377
.LBB789:
.LBI789:
	.loc 1 29688 16 view .LVU1378
.LBE789:
.LBE829:
.LBE859:
.LBE873:
.LBE931:
	.loc 1 29690 5 view .LVU1379
.LBB932:
.LBB874:
.LBB860:
.LBB830:
.LBB794:
.LBB790:
.LBI790:
	.loc 1 29679 20 view .LVU1380
.LBB791:
	.loc 1 29681 5 view .LVU1381
	.loc 1 29685 5 view .LVU1382
	.loc 1 29685 21 is_stmt 0 view .LVU1383
	movq	(%r12), %rax
.LVL421:
	.loc 1 29685 21 view .LVU1384
.LBE791:
.LBE790:
.LBB792:
.LBI792:
	.loc 1 28929 16 is_stmt 1 view .LVU1385
.LBB793:
	.loc 1 28931 5 view .LVU1386
	testq	%rax, %rax
	je	.L385
	.loc 1 28935 5 view .LVU1387
	.loc 1 28935 22 is_stmt 0 view .LVU1388
	movq	112(%rax), %r13
.LVL422:
	.loc 1 28935 22 view .LVU1389
.LBE793:
.LBE792:
.LBE794:
.LBB795:
.LBI795:
	.loc 1 2100 18 is_stmt 1 view .LVU1390
.LBB796:
	.loc 1 2102 5 view .LVU1391
	testq	%r13, %r13
	je	.L385
	.loc 1 2106 5 view .LVU1392
.LVL423:
.LBB797:
.LBI797:
	.loc 1 2031 13 view .LVU1393
.LBB798:
	.loc 1 2034 5 view .LVU1394
	.loc 1 2034 18 is_stmt 0 view .LVU1395
	leaq	104(%r13), %r14
.LVL424:
.LBB799:
.LBI799:
	.loc 1 4800 13 is_stmt 1 view .LVU1396
.LBE799:
.LBE798:
.LBE797:
.LBE796:
.LBE795:
.LBE830:
.LBE860:
.LBE874:
.LBE932:
	.loc 1 4802 5 view .LVU1397
	.loc 1 4811 5 view .LVU1398
.LBB933:
.LBB875:
.LBB861:
.LBB831:
.LBB824:
.LBB820:
.LBB808:
.LBB806:
.LBB804:
.LBB800:
.LBI800:
	.loc 1 4556 13 view .LVU1399
.LBB801:
	.loc 1 4558 5 view .LVU1400
	leaq	8(%r13), %rbx
.LBE801:
.LBE800:
.LBE804:
.LBE806:
.LBE808:
.LBB809:
	.loc 1 2109 19 is_stmt 0 view .LVU1401
	xorl	%r12d, %r12d
.LVL425:
	.loc 1 2109 19 view .LVU1402
.LBE809:
.LBB810:
.LBB807:
.LBB805:
.LBB803:
.LBB802:
	.loc 1 4558 23 view .LVU1403
	movq	%r14, %rdi
	call	pthread_mutex_lock
.LVL426:
	.loc 1 4558 23 view .LVU1404
.LBE802:
.LBE803:
.LBE805:
.LBE807:
.LBE810:
	.loc 1 2107 5 is_stmt 1 view .LVU1405
.LBB811:
	.loc 1 2108 9 view .LVU1406
	.loc 1 2109 9 view .LVU1407
	.loc 1 2109 29 view .LVU1408
	.loc 1 2109 37 is_stmt 0 view .LVU1409
	movl	64(%r13), %edx
	.loc 1 2109 29 view .LVU1410
	testl	%edx, %edx
	je	.L388
.LVL427:
.L390:
	.loc 1 2110 13 is_stmt 1 view .LVU1411
	.loc 1 2110 39 is_stmt 0 view .LVU1412
	movq	-8(%rbx), %rax
	.loc 1 2110 13 view .LVU1413
	testq	%rax, %rax
	je	.L387
	.loc 1 2111 17 is_stmt 1 view .LVU1414
	.loc 1 2111 44 is_stmt 0 view .LVU1415
	movq	(%rbx), %rdi
	movl	$.LC35, %edx
	.loc 1 2109 57 view .LVU1416
	addl	$1, %r12d
.LVL428:
	.loc 1 2109 29 view .LVU1417
	addq	$16, %rbx
	.loc 1 2111 44 view .LVU1418
	movl	$1, %esi
	call	*%rax
.LVL429:
	.loc 1 2109 37 view .LVU1419
	movl	64(%r13), %edx
	.loc 1 2109 9 is_stmt 1 view .LVU1420
.LVL430:
	.loc 1 2109 29 view .LVU1421
	cmpl	%edx, %r12d
	jb	.L390
.LVL431:
.L388:
	.loc 1 2109 29 is_stmt 0 view .LVU1422
.LBE811:
	.loc 1 2115 5 is_stmt 1 view .LVU1423
.LBB812:
.LBI812:
	.loc 1 2040 13 view .LVU1424
.LBE812:
.LBE820:
.LBE824:
.LBE831:
.LBE861:
.LBE875:
.LBE933:
	.loc 1 2043 5 view .LVU1425
.LBB934:
.LBB876:
.LBB862:
.LBB832:
.LBB825:
.LBB821:
.LBB817:
.LBB813:
.LBI813:
	.loc 1 4815 13 view .LVU1426
.LBE813:
.LBE817:
.LBE821:
.LBE825:
.LBE832:
.LBE862:
.LBE876:
.LBE934:
	.loc 1 4817 5 view .LVU1427
	.loc 1 4826 5 view .LVU1428
.LBB935:
.LBB877:
.LBB863:
.LBB833:
.LBB826:
.LBB822:
.LBB818:
.LBB816:
.LBB814:
.LBI814:
	.loc 1 4561 13 view .LVU1429
.LBB815:
	.loc 1 4563 5 view .LVU1430
	.loc 1 4563 25 is_stmt 0 view .LVU1431
	movq	%r14, %rdi
	call	pthread_mutex_unlock
.LVL432:
	.loc 1 4563 25 view .LVU1432
.LBE815:
.LBE814:
.LBE816:
.LBE818:
	.loc 1 2117 5 is_stmt 1 view .LVU1433
.L385:
.LBE822:
.LBE826:
	.loc 1 19368 17 view .LVU1434
	.loc 1 19368 24 is_stmt 0 view .LVU1435
	movl	$-301, -116(%rbp)
	jmp	.L323
.LVL433:
.L387:
.LBB827:
.LBB823:
.LBB819:
	.loc 1 2109 9 is_stmt 1 view .LVU1436
	.loc 1 2109 57 is_stmt 0 view .LVU1437
	addl	$1, %r12d
.LVL434:
	.loc 1 2109 29 is_stmt 1 view .LVU1438
	addq	$16, %rbx
	cmpl	%r12d, %edx
	ja	.L390
	jmp	.L388
.LVL435:
.L499:
	.loc 1 2109 29 is_stmt 0 view .LVU1439
.LBE819:
.LBE823:
.LBE827:
.LBE833:
.LBE863:
.LBE877:
.LBE935:
.LBB936:
.LBB766:
.LBB759:
.LBB731:
	.loc 1 19313 17 is_stmt 1 view .LVU1440
	.loc 1 19313 61 is_stmt 0 view .LVU1441
	movq	0(%r13), %rax
	.loc 1 19313 71 view .LVU1442
	movq	-144(%rbp), %rdi
	call	*552(%rax)
.LVL436:
	.loc 1 19314 17 is_stmt 1 view .LVU1443
	.loc 1 19314 39 is_stmt 0 view .LVU1444
	movq	%r13, %rdi
	call	_ZL22ma_device_uninit__jackP9ma_device
.LVL437:
	.loc 1 19315 17 is_stmt 1 view .LVU1445
.LBB705:
.LBI705:
	.loc 1 29688 16 view .LVU1446
.LBE705:
.LBE731:
.LBE759:
.LBE766:
.LBE936:
	.loc 1 29690 5 view .LVU1447
.LBB937:
.LBB767:
.LBB760:
.LBB732:
.LBB710:
.LBB706:
.LBI706:
	.loc 1 29679 20 view .LVU1448
.LBB707:
	.loc 1 29681 5 view .LVU1449
	.loc 1 29685 5 view .LVU1450
	.loc 1 29685 21 is_stmt 0 view .LVU1451
	movq	0(%r13), %rax
.LVL438:
	.loc 1 29685 21 view .LVU1452
.LBE707:
.LBE706:
.LBB708:
.LBI708:
	.loc 1 28929 16 is_stmt 1 view .LVU1453
.LBB709:
	.loc 1 28931 5 view .LVU1454
	testq	%rax, %rax
	je	.L385
	.loc 1 28935 5 view .LVU1455
	.loc 1 28935 22 is_stmt 0 view .LVU1456
	movq	112(%rax), %r13
.LVL439:
	.loc 1 28935 22 view .LVU1457
.LBE709:
.LBE708:
.LBE710:
.LBB711:
.LBI711:
	.loc 1 2100 18 is_stmt 1 view .LVU1458
.LBB712:
	.loc 1 2102 5 view .LVU1459
	testq	%r13, %r13
	je	.L385
	.loc 1 2106 5 view .LVU1460
.LVL440:
.LBB713:
.LBI713:
	.loc 1 2031 13 view .LVU1461
.LBB714:
	.loc 1 2034 5 view .LVU1462
	.loc 1 2034 18 is_stmt 0 view .LVU1463
	leaq	104(%r13), %r14
.LVL441:
.LBB715:
.LBI715:
	.loc 1 4800 13 is_stmt 1 view .LVU1464
.LBE715:
.LBE714:
.LBE713:
.LBE712:
.LBE711:
.LBE732:
.LBE760:
.LBE767:
.LBE937:
	.loc 1 4802 5 view .LVU1465
	.loc 1 4811 5 view .LVU1466
.LBB938:
.LBB768:
.LBB761:
.LBB733:
.LBB729:
.LBB728:
.LBB724:
.LBB722:
.LBB720:
.LBB716:
.LBI716:
	.loc 1 4556 13 view .LVU1467
.LBB717:
	.loc 1 4558 5 view .LVU1468
	leaq	8(%r13), %rbx
.LBE717:
.LBE716:
.LBE720:
.LBE722:
.LBE724:
.LBB725:
	.loc 1 2109 19 is_stmt 0 view .LVU1469
	xorl	%r12d, %r12d
.LVL442:
	.loc 1 2109 19 view .LVU1470
.LBE725:
.LBB726:
.LBB723:
.LBB721:
.LBB719:
.LBB718:
	.loc 1 4558 23 view .LVU1471
	movq	%r14, %rdi
	call	pthread_mutex_lock
.LVL443:
	.loc 1 4558 23 view .LVU1472
.LBE718:
.LBE719:
.LBE721:
.LBE723:
.LBE726:
	.loc 1 2107 5 is_stmt 1 view .LVU1473
.LBB727:
	.loc 1 2108 9 view .LVU1474
	.loc 1 2109 9 view .LVU1475
	.loc 1 2109 29 view .LVU1476
	.loc 1 2109 37 is_stmt 0 view .LVU1477
	movl	64(%r13), %edx
	.loc 1 2109 29 view .LVU1478
	testl	%edx, %edx
	je	.L388
.LVL444:
.L366:
	.loc 1 2110 13 is_stmt 1 view .LVU1479
	.loc 1 2110 39 is_stmt 0 view .LVU1480
	movq	-8(%rbx), %rax
	.loc 1 2110 13 view .LVU1481
	testq	%rax, %rax
	je	.L363
.L501:
	.loc 1 2111 17 is_stmt 1 view .LVU1482
	.loc 1 2111 44 is_stmt 0 view .LVU1483
	movq	(%rbx), %rdi
	movl	$.LC35, %edx
	.loc 1 2109 57 view .LVU1484
	addl	$1, %r12d
.LVL445:
	.loc 1 2109 29 view .LVU1485
	addq	$16, %rbx
	.loc 1 2111 44 view .LVU1486
	movl	$1, %esi
	call	*%rax
.LVL446:
	.loc 1 2109 37 view .LVU1487
	movl	64(%r13), %edx
	.loc 1 2109 9 is_stmt 1 view .LVU1488
.LVL447:
	.loc 1 2109 29 view .LVU1489
	cmpl	%r12d, %edx
	jbe	.L388
	.loc 1 2110 13 view .LVU1490
	.loc 1 2110 39 is_stmt 0 view .LVU1491
	movq	-8(%rbx), %rax
	.loc 1 2110 13 view .LVU1492
	testq	%rax, %rax
	jne	.L501
.L363:
	.loc 1 2109 9 is_stmt 1 view .LVU1493
	.loc 1 2109 57 is_stmt 0 view .LVU1494
	addl	$1, %r12d
.LVL448:
	.loc 1 2109 29 is_stmt 1 view .LVU1495
	addq	$16, %rbx
	cmpl	%edx, %r12d
	jb	.L366
	jmp	.L388
.LVL449:
.L379:
	.loc 1 2109 29 is_stmt 0 view .LVU1496
.LBE727:
.LBE728:
.LBE729:
.LBE733:
.LBE761:
.LBE768:
.LBE938:
.LBB939:
.LBB878:
.LBB864:
.LBB854:
	.loc 1 44070 5 is_stmt 1 view .LVU1497
	.loc 1 44070 5 is_stmt 0 view .LVU1498
.LBE854:
.LBE864:
	.loc 1 19377 51 view .LVU1499
	movq	$0, 3368(%r12)
	.loc 1 19378 9 is_stmt 1 view .LVU1500
	.loc 1 19379 13 view .LVU1501
	.loc 1 19379 35 is_stmt 0 view .LVU1502
	movq	%r12, %rdi
	call	_ZL22ma_device_uninit__jackP9ma_device
.LVL450:
	.loc 1 19380 13 is_stmt 1 view .LVU1503
	.loc 1 19380 20 is_stmt 0 view .LVU1504
	movl	$-4, -116(%rbp)
	jmp	.L323
.LVL451:
.L355:
	.loc 1 19380 20 view .LVU1505
.LBE878:
.LBE939:
.LBB940:
.LBB769:
.LBB762:
.LBB754:
	.loc 1 44070 5 is_stmt 1 view .LVU1506
	.loc 1 44070 5 is_stmt 0 view .LVU1507
.LBE754:
.LBE762:
	.loc 1 19325 50 view .LVU1508
	movq	$0, 3376(%r12)
	.loc 1 19326 9 is_stmt 1 view .LVU1509
	.loc 1 19327 13 view .LVU1510
	.loc 1 19327 35 is_stmt 0 view .LVU1511
	movq	%r12, %rdi
	call	_ZL22ma_device_uninit__jackP9ma_device
.LVL452:
.L480:
	.loc 1 19328 13 is_stmt 1 view .LVU1512
	.loc 1 19328 20 is_stmt 0 view .LVU1513
	movl	$-4, -116(%rbp)
	jmp	.L323
.LVL453:
.L496:
	.loc 1 19328 20 view .LVU1514
.LBE769:
.LBE940:
.LBB941:
.LBB879:
.LBB865:
.LBB855:
.LBB852:
.LBB851:
	.loc 1 782 9 is_stmt 1 view .LVU1515
	.loc 1 782 15 is_stmt 0 view .LVU1516
	movq	%r13, %rdx
	xorl	%esi, %esi
	movq	%rax, %rdi
	call	memset
.LVL454:
	.loc 1 782 15 view .LVU1517
	movq	%rax, %rcx
	jmp	.L392
.LVL455:
.L500:
	.loc 1 782 15 view .LVU1518
.LBE851:
.LBE852:
.LBE855:
.LBE865:
.LBE879:
.LBE941:
.LBB942:
.LBB770:
.LBB763:
.LBB755:
.LBB752:
.LBB751:
	.loc 1 782 9 is_stmt 1 view .LVU1519
	.loc 1 782 15 is_stmt 0 view .LVU1520
	movq	%r14, %rdx
	xorl	%esi, %esi
	movq	%rax, %rdi
	call	memset
.LVL456:
	.loc 1 782 15 view .LVU1521
	movq	%rax, %rcx
	jmp	.L368
.LVL457:
.L498:
	.loc 1 782 15 view .LVU1522
.LBE751:
.LBE752:
.LBE755:
.LBE763:
	.loc 1 19301 38 view .LVU1523
	movq	$0, 3360(%r12)
	.loc 1 19302 9 is_stmt 1 view .LVU1524
	.loc 1 19303 20 is_stmt 0 view .LVU1525
	movl	$-4, -116(%rbp)
	jmp	.L323
.LVL458:
.L493:
	.loc 1 19303 20 view .LVU1526
.LBE770:
.LBE942:
.LBB943:
.LBB880:
	.loc 1 19352 39 view .LVU1527
	movq	$0, 3352(%r12)
	.loc 1 19353 9 is_stmt 1 view .LVU1528
.LVL459:
.L375:
	.loc 1 19354 13 view .LVU1529
	.loc 1 19354 20 is_stmt 0 view .LVU1530
	movq	3360(%r12), %rdi
	.loc 1 19354 51 view .LVU1531
	leaq	288(%rax), %rsi
	.loc 1 19354 20 view .LVU1532
	call	ma_free
.LVL460:
	.loc 1 19355 13 is_stmt 1 view .LVU1533
	.loc 1 19355 20 is_stmt 0 view .LVU1534
	movl	$-4, -116(%rbp)
	jmp	.L323
.LVL461:
	.p2align 4,,10
	.p2align 3
.L491:
	.loc 1 19355 20 view .LVU1535
.LBE880:
.LBE943:
	.loc 1 19271 9 is_stmt 1 view .LVU1536
.LBB944:
.LBI944:
	.loc 1 29688 16 view .LVU1537
.LBE944:
	.loc 1 29690 5 view .LVU1538
.LBB949:
.LBB945:
.LBI945:
	.loc 1 29679 20 view .LVU1539
.LBB946:
	.loc 1 29681 5 view .LVU1540
	.loc 1 29685 5 view .LVU1541
	.loc 1 29685 21 is_stmt 0 view .LVU1542
	movq	(%r12), %rdi
.LVL462:
	.loc 1 29685 21 view .LVU1543
.LBE946:
.LBE945:
.LBB947:
.LBI947:
	.loc 1 28929 16 is_stmt 1 view .LVU1544
.LBB948:
	.loc 1 28931 5 view .LVU1545
	testq	%rdi, %rdi
	je	.L345
	.loc 1 28935 5 view .LVU1546
	.loc 1 28935 22 is_stmt 0 view .LVU1547
	movq	112(%rdi), %rdi
.LVL463:
.L345:
	.loc 1 28935 22 view .LVU1548
.LBE948:
.LBE947:
.LBE949:
	.loc 1 19271 20 view .LVU1549
	movl	$.LC32, %edx
	movl	$1, %esi
	call	ma_log_post
.LVL464:
	.loc 1 19272 9 is_stmt 1 view .LVU1550
	.loc 1 19272 16 is_stmt 0 view .LVU1551
	movl	$-301, -116(%rbp)
	jmp	.L323
.LVL465:
.L490:
	.loc 1 19267 9 is_stmt 1 view .LVU1552
.LBB950:
.LBI950:
	.loc 1 29688 16 view .LVU1553
.LBE950:
	.loc 1 29690 5 view .LVU1554
.LBB955:
.LBB951:
.LBI951:
	.loc 1 29679 20 view .LVU1555
.LBB952:
	.loc 1 29681 5 view .LVU1556
	.loc 1 29685 5 view .LVU1557
	.loc 1 29685 21 is_stmt 0 view .LVU1558
	movq	(%r12), %rdi
.LVL466:
	.loc 1 29685 21 view .LVU1559
.LBE952:
.LBE951:
.LBB953:
.LBI953:
	.loc 1 28929 16 is_stmt 1 view .LVU1560
.LBB954:
	.loc 1 28931 5 view .LVU1561
	testq	%rdi, %rdi
	je	.L343
	.loc 1 28935 5 view .LVU1562
	.loc 1 28935 22 is_stmt 0 view .LVU1563
	movq	112(%rdi), %rdi
.LVL467:
.L343:
	.loc 1 28935 22 view .LVU1564
.LBE954:
.LBE953:
.LBE955:
	.loc 1 19267 20 view .LVU1565
	movl	$.LC31, %edx
	movl	$1, %esi
	call	ma_log_post
.LVL468:
	.loc 1 19268 9 is_stmt 1 view .LVU1566
	.loc 1 19268 16 is_stmt 0 view .LVU1567
	movl	$-301, -116(%rbp)
.LVL469:
	.loc 1 19268 16 view .LVU1568
	jmp	.L323
.L331:
	.loc 1 19247 9 is_stmt 1 view .LVU1569
.LVL470:
.LBB956:
.LBI956:
	.loc 1 29688 16 view .LVU1570
.LBE956:
	.loc 1 29690 5 view .LVU1571
	.loc 1 29681 5 view .LVU1572
	.loc 1 29685 5 view .LVU1573
.LBB959:
.LBB957:
.LBI957:
	.loc 1 28929 16 view .LVU1574
.LBB958:
	.loc 1 28931 5 view .LVU1575
	testq	%rdi, %rdi
	je	.L333
	.loc 1 28935 5 view .LVU1576
	.loc 1 28935 22 is_stmt 0 view .LVU1577
	movq	112(%rdi), %rdi
.L333:
.LVL471:
	.loc 1 28935 22 view .LVU1578
.LBE958:
.LBE957:
.LBE959:
	.loc 1 19247 20 view .LVU1579
	movl	$.LC29, %edx
	movl	$1, %esi
	call	ma_log_post
.LVL472:
	.loc 1 19248 9 is_stmt 1 view .LVU1580
	.loc 1 19248 16 is_stmt 0 view .LVU1581
	movl	$-104, -116(%rbp)
	jmp	.L323
.LVL473:
.L486:
	.loc 1 19240 9 is_stmt 1 view .LVU1582
.LBB960:
.LBI680:
	.loc 1 29688 16 view .LVU1583
.LBE960:
	.loc 1 29690 5 view .LVU1584
.LBB961:
.LBB684:
.LBI681:
	.loc 1 29679 20 view .LVU1585
.LBB683:
	.loc 1 29681 5 view .LVU1586
	.loc 1 29685 5 view .LVU1587
	.loc 1 29685 5 is_stmt 0 view .LVU1588
.LBE683:
.LBE684:
.LBB685:
.LBI685:
	.loc 1 28929 16 is_stmt 1 view .LVU1589
.LBB686:
	.loc 1 28931 5 view .LVU1590
	testq	%rdi, %rdi
	je	.L327
	.loc 1 28935 5 view .LVU1591
	.loc 1 28935 22 is_stmt 0 view .LVU1592
	movq	112(%rdi), %rdi
.L327:
.LVL474:
	.loc 1 28935 22 view .LVU1593
.LBE686:
.LBE685:
.LBE961:
	.loc 1 19240 20 view .LVU1594
	movl	$.LC28, %edx
.LVL475:
	.loc 1 19240 20 view .LVU1595
	movl	$1, %esi
.LVL476:
	.loc 1 19240 20 view .LVU1596
	call	ma_log_post
.LVL477:
	.loc 1 19241 9 is_stmt 1 view .LVU1597
	.loc 1 19241 16 is_stmt 0 view .LVU1598
	movl	$-101, -116(%rbp)
	jmp	.L323
.LVL478:
.L482:
.LBB962:
.LBB881:
	.loc 1 19343 13 is_stmt 1 view .LVU1599
.LBB866:
.LBI866:
	.loc 1 29688 16 view .LVU1600
.LBE866:
.LBE881:
.LBE962:
	.loc 1 29690 5 view .LVU1601
.LBB963:
.LBB882:
.LBB871:
.LBB867:
.LBI867:
	.loc 1 29679 20 view .LVU1602
.LBB868:
	.loc 1 29681 5 view .LVU1603
	.loc 1 29685 5 view .LVU1604
	.loc 1 29685 21 is_stmt 0 view .LVU1605
	movq	(%r12), %rdi
.LVL479:
	.loc 1 29685 21 view .LVU1606
.LBE868:
.LBE867:
.LBB869:
.LBI869:
	.loc 1 28929 16 is_stmt 1 view .LVU1607
.LBB870:
	.loc 1 28931 5 view .LVU1608
	testq	%rdi, %rdi
	je	.L371
	.loc 1 28935 5 view .LVU1609
	.loc 1 28935 22 is_stmt 0 view .LVU1610
	movq	112(%rdi), %rdi
.LVL480:
.L371:
	.loc 1 28935 22 view .LVU1611
.LBE870:
.LBE869:
.LBE871:
	.loc 1 19343 24 view .LVU1612
	movl	$.LC17, %edx
	movl	$1, %esi
	call	ma_log_post
.LVL481:
	.loc 1 19344 13 is_stmt 1 view .LVU1613
	.loc 1 19344 20 is_stmt 0 view .LVU1614
	movl	$-301, -116(%rbp)
	jmp	.L323
.LVL482:
.L485:
	.loc 1 19344 20 view .LVU1615
.LBE882:
.LBE963:
	.loc 1 19237 5 discriminator 1 view .LVU1616
	movl	$.LC26, %ecx
.LVL483:
	.loc 1 19237 5 discriminator 1 view .LVU1617
	movl	$19237, %edx
.LVL484:
	.loc 1 19237 5 discriminator 1 view .LVU1618
	movl	$.LC8, %esi
.LVL485:
	.loc 1 19237 5 discriminator 1 view .LVU1619
	movl	$.LC19, %edi
.LVL486:
	.loc 1 19237 5 discriminator 1 view .LVU1620
	call	__assert_fail
.LVL487:
.L484:
	.loc 1 19236 5 discriminator 1 view .LVU1621
	movl	$.LC26, %ecx
.LVL488:
	.loc 1 19236 5 discriminator 1 view .LVU1622
	movl	$19236, %edx
.LVL489:
	.loc 1 19236 5 discriminator 1 view .LVU1623
	movl	$.LC8, %esi
.LVL490:
	.loc 1 19236 5 discriminator 1 view .LVU1624
	movl	$.LC27, %edi
.LVL491:
	.loc 1 19236 5 discriminator 1 view .LVU1625
	call	__assert_fail
.LVL492:
.L494:
.LBB964:
.LBB883:
	.loc 1 19354 61 view .LVU1626
	movq	(%r12), %rax
	jmp	.L375
.LBE883:
.LBE964:
	.cfi_endproc
.LFE89:
	.size	_ZL20ma_device_init__jackP9ma_devicePK16ma_device_configP20ma_device_descriptorS5_, .-_ZL20ma_device_init__jackP9ma_devicePK16ma_device_configP20ma_device_descriptorS5_
	.section	.rodata.str1.8
	.align 8
.LC37:
	.string	"[JACK] Failed to activate the JACK client."
	.align 8
.LC38:
	.string	"[JACK] Failed to retrieve physical ports."
	.align 8
.LC39:
	.string	"[JACK] Failed to connect ports."
	.text
	.p2align 4
	.type	_ZL21ma_device_start__jackP9ma_device, @function
_ZL21ma_device_start__jackP9ma_device:
.LVL493:
.LFB91:
	.loc 1 19389 1 is_stmt 1 view -0
	.cfi_startproc
	.loc 1 19389 1 is_stmt 0 view .LVU1628
	pushq	%rbp
	.cfi_def_cfa_offset 16
	.cfi_offset 6, -16
	movq	%rsp, %rbp
	.cfi_def_cfa_register 6
	pushq	%r15
	pushq	%r14
	pushq	%r13
	pushq	%r12
	pushq	%rbx
	subq	$24, %rsp
	.cfi_offset 15, -24
	.cfi_offset 14, -32
	.cfi_offset 13, -40
	.cfi_offset 12, -48
	.cfi_offset 3, -56
1:	call	mcount
	.loc 1 19389 1 view .LVU1629
	.loc 1 19390 5 is_stmt 1 view .LVU1630
	.loc 1 19390 17 is_stmt 0 view .LVU1631
	movq	(%rdi), %r12
.LVL494:
	.loc 1 19391 5 is_stmt 1 view .LVU1632
	.loc 1 19392 5 view .LVU1633
	.loc 1 19394 5 view .LVU1634
	.loc 1 19389 1 is_stmt 0 view .LVU1635
	movq	%rdi, %rbx
	.loc 1 19394 71 view .LVU1636
	movq	3344(%rdi), %rdi
.LVL495:
	.loc 1 19394 71 view .LVU1637
	call	*504(%r12)
.LVL496:
	movl	%eax, -52(%rbp)
.LVL497:
	.loc 1 19395 5 is_stmt 1 view .LVU1638
	testl	%eax, %eax
	jne	.L563
	.loc 1 19400 5 view .LVU1639
.LBB1022:
	.loc 1 19400 18 is_stmt 0 view .LVU1640
	movl	8(%rbx), %eax
.LVL498:
	.loc 1 19400 49 view .LVU1641
	leal	-2(%rax), %edx
	.loc 1 19400 5 view .LVU1642
	cmpl	$1, %edx
	jbe	.L564
.LVL499:
.L506:
	.loc 1 19400 5 view .LVU1643
.LBE1022:
	.loc 1 19424 5 is_stmt 1 view .LVU1644
.LBB1058:
	andl	$-3, %eax
	.loc 1 19424 50 is_stmt 0 view .LVU1645
	cmpl	$1, %eax
	jne	.L502
.LBB1059:
	.loc 1 19425 9 is_stmt 1 view .LVU1646
	.loc 1 19425 93 is_stmt 0 view .LVU1647
	movq	3344(%rbx), %rdi
	movl	$5, %ecx
	movl	$.LC16, %edx
	xorl	%esi, %esi
	call	*496(%r12)
.LVL500:
	movq	%rax, %r13
.LVL501:
	.loc 1 19426 9 is_stmt 1 view .LVU1648
	testq	%rax, %rax
	je	.L561
.LVL502:
.LBB1060:
	.loc 1 19432 38 view .LVU1649
	.loc 1 19432 36 is_stmt 0 view .LVU1650
	movq	(%rax), %r14
	xorl	%r15d, %r15d
	.loc 1 19432 38 view .LVU1651
	testq	%r14, %r14
	jne	.L521
	jmp	.L528
.LVL503:
	.p2align 4,,10
	.p2align 3
.L522:
	.loc 1 19432 9 is_stmt 1 discriminator 2 view .LVU1652
	.loc 1 19432 38 discriminator 2 view .LVU1653
	addq	$8, %r15
	.loc 1 19432 36 is_stmt 0 discriminator 2 view .LVU1654
	movq	0(%r13,%r15), %r14
.LVL504:
	.loc 1 19432 38 discriminator 2 view .LVU1655
	testq	%r14, %r14
	je	.L528
.LVL505:
.L521:
.LBB1061:
	.loc 1 19433 13 is_stmt 1 view .LVU1656
	.loc 1 19434 13 view .LVU1657
	.loc 1 19434 94 is_stmt 0 view .LVU1658
	movq	3352(%rbx), %rax
	movq	(%rax,%r15), %rdi
	call	*536(%r12)
.LVL506:
	.loc 1 19436 77 view .LVU1659
	movq	3344(%rbx), %rdi
	movq	%r14, %rdx
	.loc 1 19434 94 view .LVU1660
	movq	%rax, %rsi
.LVL507:
	.loc 1 19436 13 is_stmt 1 view .LVU1661
	.loc 1 19436 77 is_stmt 0 view .LVU1662
	call	*520(%r12)
.LVL508:
	.loc 1 19437 13 is_stmt 1 view .LVU1663
	testl	%eax, %eax
	je	.L522
	.loc 1 19438 17 view .LVU1664
	.loc 1 19438 62 is_stmt 0 view .LVU1665
	movq	%r13, %rdi
	call	*552(%r12)
.LVL509:
	.loc 1 19439 17 is_stmt 1 view .LVU1666
	.loc 1 19439 74 is_stmt 0 view .LVU1667
	movq	3344(%rbx), %rdi
	call	*512(%r12)
.LVL510:
	.loc 1 19440 17 is_stmt 1 view .LVU1668
.LBB1062:
.LBI1062:
	.loc 1 29688 16 view .LVU1669
.LBE1062:
.LBE1061:
.LBE1060:
.LBE1059:
.LBE1058:
	.loc 1 29690 5 view .LVU1670
.LBB1124:
.LBB1117:
.LBB1106:
.LBB1101:
.LBB1067:
.LBB1063:
.LBI1063:
	.loc 1 29679 20 view .LVU1671
.LBB1064:
	.loc 1 29681 5 view .LVU1672
	.loc 1 29685 5 view .LVU1673
	.loc 1 29685 21 is_stmt 0 view .LVU1674
	movq	(%rbx), %rax
.LVL511:
	.loc 1 29685 21 view .LVU1675
.LBE1064:
.LBE1063:
.LBB1065:
.LBI1065:
	.loc 1 28929 16 is_stmt 1 view .LVU1676
.LBB1066:
	.loc 1 28931 5 view .LVU1677
	testq	%rax, %rax
	je	.L559
	.loc 1 28935 5 view .LVU1678
	.loc 1 28935 22 is_stmt 0 view .LVU1679
	movq	112(%rax), %r14
.LVL512:
	.loc 1 28935 22 view .LVU1680
.LBE1066:
.LBE1065:
.LBE1067:
.LBB1068:
.LBI1068:
	.loc 1 2100 18 is_stmt 1 view .LVU1681
.LBB1069:
	.loc 1 2102 5 view .LVU1682
	testq	%r14, %r14
	je	.L559
	.loc 1 2106 5 view .LVU1683
.LVL513:
.LBB1070:
.LBI1070:
	.loc 1 2031 13 view .LVU1684
.LBB1071:
	.loc 1 2034 5 view .LVU1685
	.loc 1 2034 18 is_stmt 0 view .LVU1686
	leaq	104(%r14), %r13
.LVL514:
.LBB1072:
.LBI1072:
	.loc 1 4800 13 is_stmt 1 view .LVU1687
.LBE1072:
.LBE1071:
.LBE1070:
.LBE1069:
.LBE1068:
.LBE1101:
.LBE1106:
.LBE1117:
.LBE1124:
	.loc 1 4802 5 view .LVU1688
	.loc 1 4811 5 view .LVU1689
.LBB1125:
.LBB1118:
.LBB1107:
.LBB1102:
.LBB1097:
.LBB1093:
.LBB1081:
.LBB1079:
.LBB1077:
.LBB1073:
.LBI1073:
	.loc 1 4556 13 view .LVU1690
.LBB1074:
	.loc 1 4558 5 view .LVU1691
	leaq	8(%r14), %rbx
.LVL515:
	.loc 1 4558 5 is_stmt 0 view .LVU1692
.LBE1074:
.LBE1073:
.LBE1077:
.LBE1079:
.LBE1081:
.LBB1082:
	.loc 1 2109 19 view .LVU1693
	xorl	%r12d, %r12d
.LVL516:
	.loc 1 2109 19 view .LVU1694
.LBE1082:
.LBB1083:
.LBB1080:
.LBB1078:
.LBB1076:
.LBB1075:
	.loc 1 4558 23 view .LVU1695
	movq	%r13, %rdi
	call	pthread_mutex_lock
.LVL517:
	.loc 1 4558 23 view .LVU1696
.LBE1075:
.LBE1076:
.LBE1078:
.LBE1080:
.LBE1083:
	.loc 1 2107 5 is_stmt 1 view .LVU1697
.LBB1084:
	.loc 1 2108 9 view .LVU1698
	.loc 1 2109 9 view .LVU1699
	.loc 1 2109 29 view .LVU1700
	.loc 1 2109 37 is_stmt 0 view .LVU1701
	movl	64(%r14), %edx
	.loc 1 2109 29 view .LVU1702
	testl	%edx, %edx
	je	.L525
.LVL518:
.L527:
	.loc 1 2110 13 is_stmt 1 view .LVU1703
	.loc 1 2110 39 is_stmt 0 view .LVU1704
	movq	-8(%rbx), %rax
	.loc 1 2110 13 view .LVU1705
	testq	%rax, %rax
	je	.L524
	.loc 1 2111 17 is_stmt 1 view .LVU1706
	.loc 1 2111 44 is_stmt 0 view .LVU1707
	movq	(%rbx), %rdi
	movl	$.LC39, %edx
	.loc 1 2109 57 view .LVU1708
	addl	$1, %r12d
.LVL519:
	.loc 1 2109 29 view .LVU1709
	addq	$16, %rbx
	.loc 1 2111 44 view .LVU1710
	movl	$1, %esi
	call	*%rax
.LVL520:
	.loc 1 2109 37 view .LVU1711
	movl	64(%r14), %edx
	.loc 1 2109 9 is_stmt 1 view .LVU1712
.LVL521:
	.loc 1 2109 29 view .LVU1713
	cmpl	%edx, %r12d
	jb	.L527
.LVL522:
.L525:
	.loc 1 2109 29 is_stmt 0 view .LVU1714
.LBE1084:
	.loc 1 2115 5 is_stmt 1 view .LVU1715
.LBB1085:
.LBI1085:
	.loc 1 2040 13 view .LVU1716
.LBE1085:
.LBE1093:
.LBE1097:
.LBE1102:
.LBE1107:
.LBE1118:
.LBE1125:
	.loc 1 2043 5 view .LVU1717
.LBB1126:
.LBB1119:
.LBB1108:
.LBB1103:
.LBB1098:
.LBB1094:
.LBB1090:
.LBB1086:
.LBI1086:
	.loc 1 4815 13 view .LVU1718
.LBE1086:
.LBE1090:
.LBE1094:
.LBE1098:
.LBE1103:
.LBE1108:
.LBE1119:
.LBE1126:
	.loc 1 4817 5 view .LVU1719
	.loc 1 4826 5 view .LVU1720
.LBB1127:
.LBB1120:
.LBB1109:
.LBB1104:
.LBB1099:
.LBB1095:
.LBB1091:
.LBB1089:
.LBB1087:
.LBI1087:
	.loc 1 4561 13 view .LVU1721
.LBB1088:
	.loc 1 4563 5 view .LVU1722
	.loc 1 4563 25 is_stmt 0 view .LVU1723
	movq	%r13, %rdi
	call	pthread_mutex_unlock
.LVL523:
	.loc 1 4563 25 view .LVU1724
.LBE1088:
.LBE1087:
.LBE1089:
.LBE1091:
	.loc 1 2117 5 is_stmt 1 view .LVU1725
.LBE1095:
.LBE1099:
	.loc 1 19441 24 is_stmt 0 view .LVU1726
	movl	$-1, -52(%rbp)
.L502:
.LBE1104:
.LBE1109:
.LBE1120:
.LBE1127:
	.loc 1 19449 1 view .LVU1727
	movl	-52(%rbp), %eax
	addq	$24, %rsp
	popq	%rbx
	popq	%r12
	popq	%r13
	popq	%r14
	popq	%r15
	popq	%rbp
	.cfi_remember_state
	.cfi_def_cfa 7, 8
	ret
.LVL524:
	.p2align 4,,10
	.p2align 3
.L564:
	.cfi_restore_state
.LBB1128:
.LBB1023:
	.loc 1 19401 9 is_stmt 1 view .LVU1728
	.loc 1 19401 93 is_stmt 0 view .LVU1729
	movq	3344(%rbx), %rdi
	movl	$6, %ecx
	movl	$.LC16, %edx
	xorl	%esi, %esi
	call	*496(%r12)
.LVL525:
	movq	%rax, %r13
.LVL526:
	.loc 1 19402 9 is_stmt 1 view .LVU1730
	testq	%rax, %rax
	je	.L561
.LVL527:
.LBB1024:
	.loc 1 19408 38 view .LVU1731
	.loc 1 19408 36 is_stmt 0 view .LVU1732
	movq	(%rax), %r14
	xorl	%r15d, %r15d
	.loc 1 19408 38 view .LVU1733
	testq	%r14, %r14
	jne	.L509
	jmp	.L518
.LVL528:
	.p2align 4,,10
	.p2align 3
.L510:
	.loc 1 19408 9 is_stmt 1 discriminator 2 view .LVU1734
	.loc 1 19408 38 discriminator 2 view .LVU1735
	addq	$8, %r15
	.loc 1 19408 36 is_stmt 0 discriminator 2 view .LVU1736
	movq	0(%r13,%r15), %r14
.LVL529:
	.loc 1 19408 38 discriminator 2 view .LVU1737
	testq	%r14, %r14
	je	.L518
.LVL530:
.L509:
.LBB1025:
	.loc 1 19409 13 is_stmt 1 view .LVU1738
	.loc 1 19410 13 view .LVU1739
	.loc 1 19410 94 is_stmt 0 view .LVU1740
	movq	3360(%rbx), %rax
	movq	(%rax,%r15), %rdi
	call	*536(%r12)
.LVL531:
	.loc 1 19412 77 view .LVU1741
	movq	3344(%rbx), %rdi
	movq	%r14, %rsi
	.loc 1 19410 94 view .LVU1742
	movq	%rax, %rdx
.LVL532:
	.loc 1 19412 13 is_stmt 1 view .LVU1743
	.loc 1 19412 77 is_stmt 0 view .LVU1744
	call	*520(%r12)
.LVL533:
	.loc 1 19413 13 is_stmt 1 view .LVU1745
	testl	%eax, %eax
	je	.L510
	.loc 1 19414 17 view .LVU1746
	.loc 1 19414 62 is_stmt 0 view .LVU1747
	movq	%r13, %rdi
	call	*552(%r12)
.LVL534:
	.loc 1 19415 17 is_stmt 1 view .LVU1748
	.loc 1 19415 74 is_stmt 0 view .LVU1749
	movq	3344(%rbx), %rdi
	call	*512(%r12)
.LVL535:
	.loc 1 19416 17 is_stmt 1 view .LVU1750
.LBB1026:
.LBI1026:
	.loc 1 29688 16 view .LVU1751
.LBE1026:
.LBE1025:
.LBE1024:
.LBE1023:
.LBE1128:
	.loc 1 29690 5 view .LVU1752
.LBB1129:
.LBB1055:
.LBB1053:
.LBB1051:
.LBB1031:
.LBB1027:
.LBI1027:
	.loc 1 29679 20 view .LVU1753
.LBB1028:
	.loc 1 29681 5 view .LVU1754
	.loc 1 29685 5 view .LVU1755
	.loc 1 29685 21 is_stmt 0 view .LVU1756
	movq	(%rbx), %rax
.LVL536:
	.loc 1 29685 21 view .LVU1757
.LBE1028:
.LBE1027:
.LBB1029:
.LBI1029:
	.loc 1 28929 16 is_stmt 1 view .LVU1758
.LBB1030:
	.loc 1 28931 5 view .LVU1759
	testq	%rax, %rax
	je	.L559
	.loc 1 28935 5 view .LVU1760
	.loc 1 28935 22 is_stmt 0 view .LVU1761
	movq	112(%rax), %r14
.LVL537:
	.loc 1 28935 22 view .LVU1762
.LBE1030:
.LBE1029:
.LBE1031:
.LBB1032:
.LBI1032:
	.loc 1 2100 18 is_stmt 1 view .LVU1763
.LBB1033:
	.loc 1 2102 5 view .LVU1764
	testq	%r14, %r14
	je	.L559
	.loc 1 2106 5 view .LVU1765
.LVL538:
.LBB1034:
.LBI1034:
	.loc 1 2031 13 view .LVU1766
.LBB1035:
	.loc 1 2034 5 view .LVU1767
	.loc 1 2034 18 is_stmt 0 view .LVU1768
	leaq	104(%r14), %r13
.LVL539:
.LBB1036:
.LBI1036:
	.loc 1 4800 13 is_stmt 1 view .LVU1769
.LBE1036:
.LBE1035:
.LBE1034:
.LBE1033:
.LBE1032:
.LBE1051:
.LBE1053:
.LBE1055:
.LBE1129:
	.loc 1 4802 5 view .LVU1770
	.loc 1 4811 5 view .LVU1771
.LBB1130:
.LBB1056:
.LBB1054:
.LBB1052:
.LBB1050:
.LBB1049:
.LBB1045:
.LBB1043:
.LBB1041:
.LBB1037:
.LBI1037:
	.loc 1 4556 13 view .LVU1772
.LBB1038:
	.loc 1 4558 5 view .LVU1773
	leaq	8(%r14), %rbx
.LVL540:
	.loc 1 4558 5 is_stmt 0 view .LVU1774
.LBE1038:
.LBE1037:
.LBE1041:
.LBE1043:
.LBE1045:
.LBB1046:
	.loc 1 2109 19 view .LVU1775
	xorl	%r12d, %r12d
.LVL541:
	.loc 1 2109 19 view .LVU1776
.LBE1046:
.LBB1047:
.LBB1044:
.LBB1042:
.LBB1040:
.LBB1039:
	.loc 1 4558 23 view .LVU1777
	movq	%r13, %rdi
	call	pthread_mutex_lock
.LVL542:
	.loc 1 4558 23 view .LVU1778
.LBE1039:
.LBE1040:
.LBE1042:
.LBE1044:
.LBE1047:
	.loc 1 2107 5 is_stmt 1 view .LVU1779
.LBB1048:
	.loc 1 2108 9 view .LVU1780
	.loc 1 2109 9 view .LVU1781
	.loc 1 2109 29 view .LVU1782
	.loc 1 2109 37 is_stmt 0 view .LVU1783
	movl	64(%r14), %edx
	.loc 1 2109 29 view .LVU1784
	testl	%edx, %edx
	je	.L525
.LVL543:
.L517:
	.loc 1 2110 13 is_stmt 1 view .LVU1785
	.loc 1 2110 39 is_stmt 0 view .LVU1786
	movq	-8(%rbx), %rax
	.loc 1 2110 13 view .LVU1787
	testq	%rax, %rax
	je	.L514
.L565:
	.loc 1 2111 17 is_stmt 1 view .LVU1788
	.loc 1 2111 44 is_stmt 0 view .LVU1789
	movq	(%rbx), %rdi
	movl	$.LC39, %edx
	.loc 1 2109 57 view .LVU1790
	addl	$1, %r12d
.LVL544:
	.loc 1 2109 29 view .LVU1791
	addq	$16, %rbx
	.loc 1 2111 44 view .LVU1792
	movl	$1, %esi
	call	*%rax
.LVL545:
	.loc 1 2109 37 view .LVU1793
	movl	64(%r14), %edx
	.loc 1 2109 9 is_stmt 1 view .LVU1794
.LVL546:
	.loc 1 2109 29 view .LVU1795
	cmpl	%edx, %r12d
	jnb	.L525
	.loc 1 2110 13 view .LVU1796
	.loc 1 2110 39 is_stmt 0 view .LVU1797
	movq	-8(%rbx), %rax
	.loc 1 2110 13 view .LVU1798
	testq	%rax, %rax
	jne	.L565
.L514:
	.loc 1 2109 9 is_stmt 1 view .LVU1799
	.loc 1 2109 57 is_stmt 0 view .LVU1800
	addl	$1, %r12d
.LVL547:
	.loc 1 2109 29 is_stmt 1 view .LVU1801
	addq	$16, %rbx
	cmpl	%r12d, %edx
	ja	.L517
	jmp	.L525
.LVL548:
	.p2align 4,,10
	.p2align 3
.L528:
	.loc 1 2109 29 is_stmt 0 view .LVU1802
.LBE1048:
.LBE1049:
.LBE1050:
.LBE1052:
.LBE1054:
.LBE1056:
.LBE1130:
.LBB1131:
.LBB1121:
	.loc 1 19445 9 is_stmt 1 view .LVU1803
	.loc 1 19445 54 is_stmt 0 view .LVU1804
	movq	%r13, %rdi
	call	*552(%r12)
.LVL549:
	jmp	.L502
.LVL550:
	.p2align 4,,10
	.p2align 3
.L518:
	.loc 1 19445 54 view .LVU1805
.LBE1121:
.LBE1131:
.LBB1132:
.LBB1057:
	.loc 1 19421 9 is_stmt 1 view .LVU1806
	.loc 1 19421 54 is_stmt 0 view .LVU1807
	movq	%r13, %rdi
	call	*552(%r12)
.LVL551:
.LBE1057:
.LBE1132:
.LBB1133:
	.loc 1 19424 18 view .LVU1808
	movl	8(%rbx), %eax
.LBE1133:
.LBB1134:
	jmp	.L506
.LVL552:
	.p2align 4,,10
	.p2align 3
.L524:
	.loc 1 19424 18 view .LVU1809
.LBE1134:
.LBB1135:
.LBB1122:
.LBB1110:
.LBB1105:
.LBB1100:
.LBB1096:
.LBB1092:
	.loc 1 2109 9 is_stmt 1 view .LVU1810
	.loc 1 2109 57 is_stmt 0 view .LVU1811
	addl	$1, %r12d
.LVL553:
	.loc 1 2109 29 is_stmt 1 view .LVU1812
	addq	$16, %rbx
	cmpl	%edx, %r12d
	jb	.L527
	jmp	.L525
.LVL554:
.L561:
	.loc 1 2109 29 is_stmt 0 view .LVU1813
.LBE1092:
.LBE1096:
.LBE1100:
.LBE1105:
.LBE1110:
	.loc 1 19427 13 is_stmt 1 view .LVU1814
	.loc 1 19427 70 is_stmt 0 view .LVU1815
	movq	3344(%rbx), %rdi
	call	*512(%r12)
.LVL555:
	.loc 1 19428 13 is_stmt 1 view .LVU1816
.LBB1111:
.LBI1111:
	.loc 1 29688 16 view .LVU1817
.LBE1111:
.LBE1122:
.LBE1135:
	.loc 1 29690 5 view .LVU1818
.LBB1136:
.LBB1123:
.LBB1116:
.LBB1112:
.LBI1112:
	.loc 1 29679 20 view .LVU1819
.LBB1113:
	.loc 1 29681 5 view .LVU1820
	.loc 1 29685 5 view .LVU1821
	.loc 1 29685 21 is_stmt 0 view .LVU1822
	movq	(%rbx), %rdi
.LVL556:
	.loc 1 29685 21 view .LVU1823
.LBE1113:
.LBE1112:
.LBB1114:
.LBI1114:
	.loc 1 28929 16 is_stmt 1 view .LVU1824
.LBB1115:
	.loc 1 28931 5 view .LVU1825
	testq	%rdi, %rdi
	je	.L520
	.loc 1 28935 5 view .LVU1826
	.loc 1 28935 22 is_stmt 0 view .LVU1827
	movq	112(%rdi), %rdi
.LVL557:
.L520:
	.loc 1 28935 22 view .LVU1828
.LBE1115:
.LBE1114:
.LBE1116:
	.loc 1 19428 24 view .LVU1829
	movl	$.LC38, %edx
	movl	$1, %esi
	call	ma_log_post
.LVL558:
.L559:
	.loc 1 19429 13 is_stmt 1 view .LVU1830
	.loc 1 19429 20 is_stmt 0 view .LVU1831
	movl	$-1, -52(%rbp)
	jmp	.L502
.LVL559:
.L563:
	.loc 1 19429 20 view .LVU1832
.LBE1123:
.LBE1136:
	.loc 1 19396 9 is_stmt 1 view .LVU1833
.LBB1137:
.LBI1137:
	.loc 1 29688 16 view .LVU1834
.LBE1137:
	.loc 1 29690 5 view .LVU1835
.LBB1142:
.LBB1138:
.LBI1138:
	.loc 1 29679 20 view .LVU1836
.LBB1139:
	.loc 1 29681 5 view .LVU1837
	.loc 1 29685 5 view .LVU1838
	.loc 1 29685 21 is_stmt 0 view .LVU1839
	movq	(%rbx), %rdi
.LVL560:
	.loc 1 29685 21 view .LVU1840
.LBE1139:
.LBE1138:
.LBB1140:
.LBI1140:
	.loc 1 28929 16 is_stmt 1 view .LVU1841
.LBB1141:
	.loc 1 28931 5 view .LVU1842
	testq	%rdi, %rdi
	je	.L504
	.loc 1 28935 5 view .LVU1843
	.loc 1 28935 22 is_stmt 0 view .LVU1844
	movq	112(%rdi), %rdi
.LVL561:
.L504:
	.loc 1 28935 22 view .LVU1845
.LBE1141:
.LBE1140:
.LBE1142:
	.loc 1 19396 20 view .LVU1846
	movl	$.LC37, %edx
	movl	$1, %esi
	call	ma_log_post
.LVL562:
	.loc 1 19397 9 is_stmt 1 view .LVU1847
	.loc 1 19397 16 is_stmt 0 view .LVU1848
	movl	$-302, -52(%rbp)
.LVL563:
	.loc 1 19397 16 view .LVU1849
	jmp	.L502
	.cfi_endproc
.LFE91:
	.size	_ZL21ma_device_start__jackP9ma_device, .-_ZL21ma_device_start__jackP9ma_device
	.section	.rodata.str1.8
	.align 8
.LC40:
	.string	"[JACK] An error occurred when deactivating the JACK client."
	.text
	.p2align 4
	.type	_ZL20ma_device_stop__jackP9ma_device, @function
_ZL20ma_device_stop__jackP9ma_device:
.LVL564:
.LFB92:
	.loc 1 19452 1 is_stmt 1 view -0
	.cfi_startproc
	.loc 1 19452 1 is_stmt 0 view .LVU1851
	pushq	%rbp
	.cfi_def_cfa_offset 16
	.cfi_offset 6, -16
	movq	%rsp, %rbp
	.cfi_def_cfa_register 6
	pushq	%r14
	pushq	%r13
	pushq	%r12
	pushq	%rbx
	subq	$16, %rsp
	.cfi_offset 14, -24
	.cfi_offset 13, -32
	.cfi_offset 12, -40
	.cfi_offset 3, -48
1:	call	mcount
	.loc 1 19452 1 view .LVU1852
	.loc 1 19453 5 is_stmt 1 view .LVU1853
.LVL565:
	.loc 1 19455 5 view .LVU1854
	.loc 1 19452 1 is_stmt 0 view .LVU1855
	movq	%rdi, %rbx
	.loc 1 19455 66 view .LVU1856
	movq	3344(%rdi), %rdi
.LVL566:
	.loc 1 19455 50 view .LVU1857
	movq	(%rbx), %rax
	.loc 1 19455 66 view .LVU1858
	call	*512(%rax)
.LVL567:
	.loc 1 19455 66 view .LVU1859
	movl	%eax, %r12d
	.loc 1 19455 5 view .LVU1860
	testl	%eax, %eax
	jne	.L585
	.loc 1 19460 5 is_stmt 1 view .LVU1861
.LVL568:
.LBB1170:
.LBI1170:
	.loc 1 6755 6 view .LVU1862
.LBB1171:
	.loc 1 6757 5 view .LVU1863
.LBB1172:
.LBI1172:
	.loc 1 6725 31 view .LVU1864
.LBB1173:
	.loc 1 6727 5 view .LVU1865
	.loc 1 6729 5 view .LVU1866
.LBB1174:
.LBI1174:
	.loc 1 776 23 view .LVU1867
.LBB1175:
	.loc 1 781 5 view .LVU1868
	.loc 1 782 9 view .LVU1869
.LBE1175:
.LBE1174:
.LBE1173:
.LBE1172:
.LBB1179:
.LBB1180:
	.loc 1 6740 31 is_stmt 0 view .LVU1870
	movq	32(%rbx), %rax
.LBE1180:
.LBE1179:
.LBB1183:
.LBB1178:
.LBB1177:
.LBB1176:
	.loc 1 782 15 view .LVU1871
	movl	$0, -36(%rbp)
.LVL569:
	.loc 1 782 15 view .LVU1872
.LBE1176:
.LBE1177:
	.loc 1 6730 5 is_stmt 1 view .LVU1873
	.loc 1 6730 26 is_stmt 0 view .LVU1874
	movq	%rbx, -48(%rbp)
	.loc 1 6731 5 is_stmt 1 view .LVU1875
	.loc 1 6731 26 is_stmt 0 view .LVU1876
	movl	$1, -40(%rbp)
	.loc 1 6733 5 is_stmt 1 view .LVU1877
.LVL570:
	.loc 1 6733 5 is_stmt 0 view .LVU1878
.LBE1178:
.LBE1183:
.LBB1184:
.LBI1179:
	.loc 1 6736 13 is_stmt 1 view .LVU1879
.LBB1181:
	.loc 1 6738 5 view .LVU1880
	.loc 1 6740 5 view .LVU1881
	testq	%rax, %rax
	je	.L574
	.loc 1 6741 9 view .LVU1882
	.loc 1 6741 45 is_stmt 0 view .LVU1883
	leaq	-48(%rbp), %rdi
	call	*%rax
.LVL571:
.L574:
	.loc 1 6745 5 is_stmt 1 view .LVU1884
	.loc 1 6745 22 is_stmt 0 view .LVU1885
	movq	-48(%rbp), %rdi
	.loc 1 6745 31 view .LVU1886
	movq	40(%rdi), %rax
	.loc 1 6745 5 view .LVU1887
	testq	%rax, %rax
	je	.L566
	.loc 1 6745 46 view .LVU1888
	cmpl	$1, -40(%rbp)
	je	.L586
.LVL572:
.L566:
	.loc 1 6745 46 view .LVU1889
.LBE1181:
.LBE1184:
.LBE1171:
.LBE1170:
	.loc 1 19463 1 view .LVU1890
	addq	$16, %rsp
	movl	%r12d, %eax
	popq	%rbx
	popq	%r12
	popq	%r13
	popq	%r14
	popq	%rbp
	.cfi_remember_state
	.cfi_def_cfa 7, 8
	ret
.LVL573:
	.p2align 4,,10
	.p2align 3
.L586:
	.cfi_restore_state
.LBB1187:
.LBB1186:
.LBB1185:
.LBB1182:
	.loc 1 6746 9 is_stmt 1 view .LVU1891
	.loc 1 6746 37 is_stmt 0 view .LVU1892
	call	*%rax
.LVL574:
.LBE1182:
.LBE1185:
.LBE1186:
.LBE1187:
	.loc 1 19463 1 view .LVU1893
	addq	$16, %rsp
	movl	%r12d, %eax
	popq	%rbx
.LVL575:
	.loc 1 19463 1 view .LVU1894
	popq	%r12
	popq	%r13
	popq	%r14
	popq	%rbp
	.cfi_remember_state
	.cfi_def_cfa 7, 8
	ret
.LVL576:
	.p2align 4,,10
	.p2align 3
.L585:
	.cfi_restore_state
	.loc 1 19463 1 view .LVU1895
	movq	(%rbx), %rax
.LBB1188:
.LBI1188:
	.loc 1 19451 18 is_stmt 1 view .LVU1896
.LVL577:
.LBB1189:
.LBB1190:
.LBB1191:
.LBB1192:
	.loc 1 28931 5 is_stmt 0 view .LVU1897
	testq	%rax, %rax
	je	.L577
	.loc 1 28935 22 view .LVU1898
	movq	112(%rax), %r14
.LVL578:
	.loc 1 28935 22 view .LVU1899
.LBE1192:
.LBE1191:
.LBE1190:
.LBB1193:
.LBI1193:
	.loc 1 2100 18 is_stmt 1 view .LVU1900
.LBB1194:
	.loc 1 2102 5 view .LVU1901
	testq	%r14, %r14
	je	.L577
	.loc 1 2106 5 view .LVU1902
.LVL579:
.LBB1195:
.LBI1195:
	.loc 1 2031 13 view .LVU1903
.LBB1196:
	.loc 1 2034 5 view .LVU1904
	.loc 1 2034 18 is_stmt 0 view .LVU1905
	leaq	104(%r14), %r13
.LVL580:
.LBB1197:
.LBI1197:
	.loc 1 4800 13 is_stmt 1 view .LVU1906
.LBE1197:
.LBE1196:
.LBE1195:
.LBE1194:
.LBE1193:
.LBE1189:
.LBE1188:
	.loc 1 4802 5 view .LVU1907
	.loc 1 4811 5 view .LVU1908
.LBB1231:
.LBB1228:
.LBB1225:
.LBB1222:
.LBB1206:
.LBB1204:
.LBB1202:
.LBB1198:
.LBI1198:
	.loc 1 4556 13 view .LVU1909
.LBB1199:
	.loc 1 4558 5 view .LVU1910
	leaq	8(%r14), %rbx
.LVL581:
	.loc 1 4558 5 is_stmt 0 view .LVU1911
.LBE1199:
.LBE1198:
.LBE1202:
.LBE1204:
.LBE1206:
.LBB1207:
	.loc 1 2109 19 view .LVU1912
	xorl	%r12d, %r12d
.LBE1207:
.LBB1208:
.LBB1205:
.LBB1203:
.LBB1201:
.LBB1200:
	.loc 1 4558 23 view .LVU1913
	movq	%r13, %rdi
	call	pthread_mutex_lock
.LVL582:
	.loc 1 4558 23 view .LVU1914
.LBE1200:
.LBE1201:
.LBE1203:
.LBE1205:
.LBE1208:
	.loc 1 2107 5 is_stmt 1 view .LVU1915
.LBB1209:
	.loc 1 2108 9 view .LVU1916
	.loc 1 2109 9 view .LVU1917
	.loc 1 2109 29 view .LVU1918
	.loc 1 2109 37 is_stmt 0 view .LVU1919
	movl	64(%r14), %edx
	.loc 1 2109 29 view .LVU1920
	testl	%edx, %edx
	je	.L571
.LVL583:
.L573:
	.loc 1 2110 13 is_stmt 1 view .LVU1921
	.loc 1 2110 39 is_stmt 0 view .LVU1922
	movq	-8(%rbx), %rax
	.loc 1 2110 13 view .LVU1923
	testq	%rax, %rax
	je	.L570
	.loc 1 2111 17 is_stmt 1 view .LVU1924
	.loc 1 2111 44 is_stmt 0 view .LVU1925
	movq	(%rbx), %rdi
	movl	$.LC40, %edx
	.loc 1 2109 57 view .LVU1926
	addl	$1, %r12d
.LVL584:
	.loc 1 2109 29 view .LVU1927
	addq	$16, %rbx
	.loc 1 2111 44 view .LVU1928
	movl	$1, %esi
	call	*%rax
.LVL585:
	.loc 1 2109 37 view .LVU1929
	movl	64(%r14), %edx
	.loc 1 2109 9 is_stmt 1 view .LVU1930
.LVL586:
	.loc 1 2109 29 view .LVU1931
	cmpl	%edx, %r12d
	jb	.L573
.LVL587:
.L571:
	.loc 1 2109 29 is_stmt 0 view .LVU1932
.LBE1209:
	.loc 1 2115 5 is_stmt 1 view .LVU1933
.LBB1210:
.LBI1210:
	.loc 1 2040 13 view .LVU1934
.LBE1210:
.LBE1222:
.LBE1225:
.LBE1228:
.LBE1231:
	.loc 1 2043 5 view .LVU1935
.LBB1232:
.LBB1229:
.LBB1226:
.LBB1223:
.LBB1218:
.LBB1211:
.LBI1211:
	.loc 1 4815 13 view .LVU1936
.LBE1211:
.LBE1218:
.LBE1223:
.LBE1226:
.LBE1229:
.LBE1232:
	.loc 1 4817 5 view .LVU1937
	.loc 1 4826 5 view .LVU1938
.LBB1233:
.LBB1230:
.LBB1227:
.LBB1224:
.LBB1219:
.LBB1216:
.LBB1212:
.LBI1212:
	.loc 1 4561 13 view .LVU1939
.LBB1213:
	.loc 1 4563 5 view .LVU1940
	.loc 1 4563 25 is_stmt 0 view .LVU1941
	movq	%r13, %rdi
.LBE1213:
.LBE1212:
.LBE1216:
.LBE1219:
	.loc 1 2117 12 view .LVU1942
	movl	$-1, %r12d
.LBB1220:
.LBB1217:
.LBB1215:
.LBB1214:
	.loc 1 4563 25 view .LVU1943
	call	pthread_mutex_unlock
.LVL588:
	.loc 1 4563 25 view .LVU1944
.LBE1214:
.LBE1215:
.LBE1217:
.LBE1220:
	.loc 1 2117 5 is_stmt 1 view .LVU1945
	.loc 1 2117 12 is_stmt 0 view .LVU1946
	jmp	.L566
.LVL589:
	.p2align 4,,10
	.p2align 3
.L570:
.LBB1221:
	.loc 1 2109 9 is_stmt 1 view .LVU1947
	.loc 1 2109 57 is_stmt 0 view .LVU1948
	addl	$1, %r12d
.LVL590:
	.loc 1 2109 29 is_stmt 1 view .LVU1949
	addq	$16, %rbx
	cmpl	%r12d, %edx
	ja	.L573
	jmp	.L571
.LVL591:
.L577:
	.loc 1 2109 29 is_stmt 0 view .LVU1950
.LBE1221:
	movl	$-1, %r12d
	.loc 1 2109 29 view .LVU1951
	jmp	.L566
.LBE1224:
.LBE1227:
.LBE1230:
.LBE1233:
	.cfi_endproc
.LFE92:
	.size	_ZL20ma_device_stop__jackP9ma_device, .-_ZL20ma_device_stop__jackP9ma_device
	.section	.rodata.str1.8
	.align 8
.LC41:
	.string	"ma_result ma_context_uninit__jack(ma_context*)"
	.align 8
.LC42:
	.string	"pContext->backend == ma_backend_jack"
	.text
	.p2align 4
	.type	_ZL23ma_context_uninit__jackP10ma_context, @function
_ZL23ma_context_uninit__jackP10ma_context:
.LVL592:
.LFB95:
	.loc 1 19467 1 is_stmt 1 view -0
	.cfi_startproc
	.loc 1 19467 1 is_stmt 0 view .LVU1953
	pushq	%rbp
	.cfi_def_cfa_offset 16
	.cfi_offset 6, -16
	movq	%rsp, %rbp
	.cfi_def_cfa_register 6
	pushq	%rbx
	subq	$8, %rsp
	.cfi_offset 3, -24
1:	call	mcount
	.loc 1 19467 1 view .LVU1954
	.loc 1 19468 5 is_stmt 1 view .LVU1955
	.loc 1 19467 1 is_stmt 0 view .LVU1956
	movq	%rdi, %rbx
	.loc 1 19468 5 view .LVU1957
	testq	%rdi, %rdi
	je	.L597
	.loc 1 19469 5 is_stmt 1 view .LVU1958
	cmpl	$9, 104(%rdi)
	jne	.L598
	.loc 1 19471 5 view .LVU1959
	.loc 1 19471 28 is_stmt 0 view .LVU1960
	movq	560(%rdi), %rdi
.LVL593:
.LBB1248:
.LBI1248:
	.loc 1 44086 13 is_stmt 1 view .LVU1961
.LBB1249:
	.loc 1 44088 5 view .LVU1962
	testq	%rdi, %rdi
	je	.L590
	.loc 1 44092 5 view .LVU1963
	movq	312(%rbx), %rax
.LVL594:
.LBB1250:
.LBI1250:
	.loc 1 44086 13 view .LVU1964
.LBB1251:
	.loc 1 44093 9 is_stmt 0 view .LVU1965
	testq	%rax, %rax
	je	.L590
	.loc 1 44094 41 view .LVU1966
	movq	288(%rbx), %rsi
	call	*%rax
.LVL595:
.L590:
	.loc 1 44094 41 view .LVU1967
.LBE1251:
.LBE1250:
.LBE1249:
.LBE1248:
	.loc 1 19472 5 is_stmt 1 view .LVU1968
	.loc 1 19472 32 is_stmt 0 view .LVU1969
	movq	$0, 560(%rbx)
	.loc 1 19475 5 is_stmt 1 view .LVU1970
.LVL596:
.LBB1252:
.LBI1252:
	.loc 1 6631 13 view .LVU1971
.LBB1253:
	.loc 1 6636 5 view .LVU1972
	.loc 1 6636 12 is_stmt 0 view .LVU1973
	movq	424(%rbx), %rdi
	call	dlclose
.LVL597:
	.loc 1 6639 5 is_stmt 1 view .LVU1974
	.loc 1 6639 5 is_stmt 0 view .LVU1975
.LBE1253:
.LBE1252:
	.loc 1 19478 5 is_stmt 1 view .LVU1976
	.loc 1 19479 1 is_stmt 0 view .LVU1977
	movq	-8(%rbp), %rbx
.LVL598:
	.loc 1 19479 1 view .LVU1978
	xorl	%eax, %eax
	leave
	.cfi_remember_state
	.cfi_def_cfa 7, 8
	ret
.LVL599:
.L597:
	.cfi_restore_state
	.loc 1 19468 5 discriminator 1 view .LVU1979
	movl	$.LC41, %ecx
	movl	$19468, %edx
	movl	$.LC8, %esi
	movl	$.LC9, %edi
	call	__assert_fail
.LVL600:
.L598:
.LBB1254:
.LBI1254:
	.loc 1 19466 18 is_stmt 1 view .LVU1980
.LBB1255:
	.loc 1 19469 5 is_stmt 0 view .LVU1981
	movl	$.LC41, %ecx
	movl	$19469, %edx
	movl	$.LC8, %esi
	movl	$.LC42, %edi
	call	__assert_fail
.LVL601:
.LBE1255:
.LBE1254:
	.cfi_endproc
.LFE95:
	.size	_ZL23ma_context_uninit__jackP10ma_context, .-_ZL23ma_context_uninit__jackP10ma_context
	.section	.rodata.str1.1
.LC43:
	.string	"libjack.so"
.LC44:
	.string	"libjack.so.0"
.LC45:
	.string	"Loading library: %s\n"
.LC46:
	.string	"Failed to load library: %s\n"
.LC47:
	.string	"jack_client_open"
.LC48:
	.string	"Failed to load symbol: %s\n"
.LC49:
	.string	"jack_client_close"
.LC50:
	.string	"jack_client_name_size"
.LC51:
	.string	"jack_set_process_callback"
.LC52:
	.string	"jack_set_buffer_size_callback"
.LC53:
	.string	"jack_on_shutdown"
.LC54:
	.string	"jack_get_sample_rate"
.LC55:
	.string	"jack_get_buffer_size"
.LC56:
	.string	"jack_get_ports"
.LC57:
	.string	"jack_activate"
.LC58:
	.string	"jack_deactivate"
.LC59:
	.string	"jack_connect"
.LC60:
	.string	"jack_port_register"
.LC61:
	.string	"jack_port_name"
.LC62:
	.string	"jack_port_get_buffer"
.LC63:
	.string	"jack_free"
.LC64:
	.string	"Loading symbol: %s\n"
	.text
	.p2align 4
	.globl	_ZL21ma_context_init__jackP10ma_contextPK17ma_context_configP20ma_backend_callbacks.lto_priv.0
	.hidden	_ZL21ma_context_init__jackP10ma_contextPK17ma_context_configP20ma_backend_callbacks.lto_priv.0
	.type	_ZL21ma_context_init__jackP10ma_contextPK17ma_context_configP20ma_backend_callbacks.lto_priv.0, @function
_ZL21ma_context_init__jackP10ma_contextPK17ma_context_configP20ma_backend_callbacks.lto_priv.0:
.LVL602:
.LFB97:
	.loc 1 19482 1 is_stmt 1 view -0
	.cfi_startproc
	.loc 1 19482 1 is_stmt 0 view .LVU1983
	pushq	%rbp
	.cfi_def_cfa_offset 16
	.cfi_offset 6, -16
	movq	%rsp, %rbp
	.cfi_def_cfa_register 6
	pushq	%r15
	pushq	%r14
	pushq	%r13
	pushq	%r12
	pushq	%rbx
	subq	$56, %rsp
	.cfi_offset 15, -24
	.cfi_offset 14, -32
	.cfi_offset 13, -40
	.cfi_offset 12, -48
	.cfi_offset 3, -56
1:	call	mcount
	.loc 1 19482 1 view .LVU1984
	.loc 1 19484 5 is_stmt 1 view .LVU1985
	.loc 1 19484 17 is_stmt 0 view .LVU1986
	movl	$.LC43, %eax
	movq	%rax, %xmm0
	movhps	.LC65(%rip), %xmm0
	.loc 1 19482 1 view .LVU1987
	movq	%rsi, -88(%rbp)
	movq	%rdi, %rbx
	movq	%rdx, %r13
	leaq	-64(%rbp), %r15
	.loc 1 19484 17 view .LVU1988
	movaps	%xmm0, -64(%rbp)
	.loc 1 19493 5 is_stmt 1 view .LVU1989
	.loc 1 19495 5 view .LVU1990
.LVL603:
	.loc 1 19495 19 view .LVU1991
.L603:
	.loc 1 19496 9 view .LVU1992
	.loc 1 19496 42 is_stmt 0 view .LVU1993
	movq	(%r15), %r14
.LVL604:
.LBB1439:
.LBI1439:
	.loc 1 6596 18 is_stmt 1 view .LVU1994
.LBB1440:
	.loc 1 6598 5 view .LVU1995
	.loc 1 6600 5 view .LVU1996
.LBB1441:
.LBI1441:
	.loc 1 28929 16 view .LVU1997
.LBB1442:
	.loc 1 28931 5 view .LVU1998
	testq	%rbx, %rbx
	je	.L600
	.loc 1 28935 5 view .LVU1999
.LVL605:
	.loc 1 28935 5 is_stmt 0 view .LVU2000
.LBE1442:
.LBE1441:
	.loc 1 6600 17 view .LVU2001
	movq	112(%rbx), %rdi
	movq	%r14, %rcx
	movl	$.LC45, %edx
	xorl	%eax, %eax
	movl	$4, %esi
	call	ma_log_postf.constprop.0
.LVL606:
	.loc 1 6616 5 is_stmt 1 view .LVU2002
	.loc 1 6616 31 is_stmt 0 view .LVU2003
	movl	$2, %esi
	movq	%r14, %rdi
	call	dlopen
.LVL607:
	movq	%rax, %r12
.LVL608:
	.loc 1 6623 5 is_stmt 1 view .LVU2004
	testq	%rax, %rax
	je	.L653
.L601:
	.loc 1 6627 5 view .LVU2005
	.loc 1 6628 5 view .LVU2006
.LVL609:
	.loc 1 6628 5 is_stmt 0 view .LVU2007
.LBE1440:
.LBE1439:
.LBB1452:
.LBB1453:
	.loc 1 6646 17 view .LVU2008
	movq	112(%rbx), %rdi
	movl	$.LC47, %ecx
	movl	$.LC64, %edx
	xorl	%eax, %eax
.LBE1453:
.LBE1452:
	.loc 1 19496 31 view .LVU2009
	movq	%r12, 424(%rbx)
	.loc 1 19497 9 is_stmt 1 view .LVU2010
	.loc 1 19502 5 view .LVU2011
	.loc 1 19506 5 view .LVU2012
.LVL610:
.LBB1462:
.LBI1452:
	.loc 1 6642 16 view .LVU2013
.LBB1460:
	.loc 1 6644 5 view .LVU2014
	.loc 1 6646 5 view .LVU2015
.LBB1454:
.LBI1454:
	.loc 1 28929 16 view .LVU2016
.LBB1455:
	.loc 1 28931 5 view .LVU2017
	.loc 1 28935 5 view .LVU2018
	.loc 1 28935 5 is_stmt 0 view .LVU2019
.LBE1455:
.LBE1454:
	.loc 1 6646 17 view .LVU2020
	movl	$4, %esi
	call	ma_log_postf.constprop.0
.LVL611:
	.loc 1 6652 13 is_stmt 1 view .LVU2021
	.loc 1 6653 13 view .LVU2022
	.loc 1 6655 5 view .LVU2023
	.loc 1 6655 26 is_stmt 0 view .LVU2024
	movq	%r12, %rdi
	movl	$.LC47, %esi
	call	dlsym
.LVL612:
	movq	%rax, %r12
.LVL613:
	.loc 1 6657 13 is_stmt 1 view .LVU2025
	.loc 1 6661 5 view .LVU2026
	testq	%rax, %rax
	je	.L654
.LVL614:
.L604:
	.loc 1 6665 5 view .LVU2027
	.loc 1 6666 5 view .LVU2028
	.loc 1 6666 5 is_stmt 0 view .LVU2029
.LBE1460:
.LBE1462:
.LBB1463:
.LBB1464:
	.loc 1 6646 17 view .LVU2030
	movq	112(%rbx), %rdi
	movl	$.LC49, %ecx
	movl	$.LC64, %edx
	xorl	%eax, %eax
.LBE1464:
.LBE1463:
	.loc 1 19506 50 view .LVU2031
	movq	%r12, 432(%rbx)
	.loc 1 19507 5 is_stmt 1 view .LVU2032
	.loc 1 19507 69 is_stmt 0 view .LVU2033
	movq	424(%rbx), %r12
.LVL615:
.LBB1473:
.LBI1463:
	.loc 1 6642 16 is_stmt 1 view .LVU2034
.LBB1471:
	.loc 1 6644 5 view .LVU2035
	.loc 1 6646 5 view .LVU2036
.LBB1465:
.LBI1465:
	.loc 1 28929 16 view .LVU2037
.LBB1466:
	.loc 1 28931 5 view .LVU2038
	.loc 1 28935 5 view .LVU2039
	.loc 1 28935 5 is_stmt 0 view .LVU2040
.LBE1466:
.LBE1465:
	.loc 1 6646 17 view .LVU2041
	movl	$4, %esi
	call	ma_log_postf.constprop.0
.LVL616:
	.loc 1 6652 13 is_stmt 1 view .LVU2042
	.loc 1 6653 13 view .LVU2043
	.loc 1 6655 5 view .LVU2044
	.loc 1 6655 26 is_stmt 0 view .LVU2045
	movq	%r12, %rdi
	movl	$.LC49, %esi
	call	dlsym
.LVL617:
	movq	%rax, %r12
.LVL618:
	.loc 1 6657 13 is_stmt 1 view .LVU2046
	.loc 1 6661 5 view .LVU2047
	testq	%rax, %rax
	je	.L655
.LVL619:
.L605:
	.loc 1 6665 5 view .LVU2048
	.loc 1 6666 5 view .LVU2049
	.loc 1 6666 5 is_stmt 0 view .LVU2050
.LBE1471:
.LBE1473:
.LBB1474:
.LBB1475:
	.loc 1 6646 17 view .LVU2051
	movq	112(%rbx), %rdi
	movl	$.LC50, %ecx
	movl	$.LC64, %edx
	xorl	%eax, %eax
.LBE1475:
.LBE1474:
	.loc 1 19507 50 view .LVU2052
	movq	%r12, 440(%rbx)
	.loc 1 19508 5 is_stmt 1 view .LVU2053
	.loc 1 19508 69 is_stmt 0 view .LVU2054
	movq	424(%rbx), %r12
.LVL620:
.LBB1484:
.LBI1474:
	.loc 1 6642 16 is_stmt 1 view .LVU2055
.LBB1482:
	.loc 1 6644 5 view .LVU2056
	.loc 1 6646 5 view .LVU2057
.LBB1476:
.LBI1476:
	.loc 1 28929 16 view .LVU2058
.LBB1477:
	.loc 1 28931 5 view .LVU2059
	.loc 1 28935 5 view .LVU2060
	.loc 1 28935 5 is_stmt 0 view .LVU2061
.LBE1477:
.LBE1476:
	.loc 1 6646 17 view .LVU2062
	movl	$4, %esi
	call	ma_log_postf.constprop.0
.LVL621:
	.loc 1 6652 13 is_stmt 1 view .LVU2063
	.loc 1 6653 13 view .LVU2064
	.loc 1 6655 5 view .LVU2065
	.loc 1 6655 26 is_stmt 0 view .LVU2066
	movq	%r12, %rdi
	movl	$.LC50, %esi
	call	dlsym
.LVL622:
	movq	%rax, %r12
.LVL623:
	.loc 1 6657 13 is_stmt 1 view .LVU2067
	.loc 1 6661 5 view .LVU2068
	testq	%rax, %rax
	je	.L656
.LVL624:
.L606:
	.loc 1 6665 5 view .LVU2069
	.loc 1 6666 5 view .LVU2070
	.loc 1 6666 5 is_stmt 0 view .LVU2071
.LBE1482:
.LBE1484:
.LBB1485:
.LBB1486:
	.loc 1 6646 17 view .LVU2072
	movq	112(%rbx), %rdi
	movl	$.LC51, %ecx
	movl	$.LC64, %edx
	xorl	%eax, %eax
.LBE1486:
.LBE1485:
	.loc 1 19508 50 view .LVU2073
	movq	%r12, 448(%rbx)
	.loc 1 19509 5 is_stmt 1 view .LVU2074
	.loc 1 19509 69 is_stmt 0 view .LVU2075
	movq	424(%rbx), %r12
.LVL625:
.LBB1495:
.LBI1485:
	.loc 1 6642 16 is_stmt 1 view .LVU2076
.LBB1493:
	.loc 1 6644 5 view .LVU2077
	.loc 1 6646 5 view .LVU2078
.LBB1487:
.LBI1487:
	.loc 1 28929 16 view .LVU2079
.LBB1488:
	.loc 1 28931 5 view .LVU2080
	.loc 1 28935 5 view .LVU2081
	.loc 1 28935 5 is_stmt 0 view .LVU2082
.LBE1488:
.LBE1487:
	.loc 1 6646 17 view .LVU2083
	movl	$4, %esi
	call	ma_log_postf.constprop.0
.LVL626:
	.loc 1 6652 13 is_stmt 1 view .LVU2084
	.loc 1 6653 13 view .LVU2085
	.loc 1 6655 5 view .LVU2086
	.loc 1 6655 26 is_stmt 0 view .LVU2087
	movq	%r12, %rdi
	movl	$.LC51, %esi
	call	dlsym
.LVL627:
	movq	%rax, %r12
.LVL628:
	.loc 1 6657 13 is_stmt 1 view .LVU2088
	.loc 1 6661 5 view .LVU2089
	testq	%rax, %rax
	je	.L657
.LVL629:
.L607:
	.loc 1 6665 5 view .LVU2090
	.loc 1 6666 5 view .LVU2091
	.loc 1 6666 5 is_stmt 0 view .LVU2092
.LBE1493:
.LBE1495:
.LBB1496:
.LBB1497:
	.loc 1 6646 17 view .LVU2093
	movq	112(%rbx), %rdi
	movl	$.LC52, %ecx
	movl	$.LC64, %edx
	xorl	%eax, %eax
.LBE1497:
.LBE1496:
	.loc 1 19509 50 view .LVU2094
	movq	%r12, 456(%rbx)
	.loc 1 19510 5 is_stmt 1 view .LVU2095
	.loc 1 19510 69 is_stmt 0 view .LVU2096
	movq	424(%rbx), %r12
.LVL630:
.LBB1506:
.LBI1496:
	.loc 1 6642 16 is_stmt 1 view .LVU2097
.LBB1504:
	.loc 1 6644 5 view .LVU2098
	.loc 1 6646 5 view .LVU2099
.LBB1498:
.LBI1498:
	.loc 1 28929 16 view .LVU2100
.LBB1499:
	.loc 1 28931 5 view .LVU2101
	.loc 1 28935 5 view .LVU2102
	.loc 1 28935 5 is_stmt 0 view .LVU2103
.LBE1499:
.LBE1498:
	.loc 1 6646 17 view .LVU2104
	movl	$4, %esi
	call	ma_log_postf.constprop.0
.LVL631:
	.loc 1 6652 13 is_stmt 1 view .LVU2105
	.loc 1 6653 13 view .LVU2106
	.loc 1 6655 5 view .LVU2107
	.loc 1 6655 26 is_stmt 0 view .LVU2108
	movq	%r12, %rdi
	movl	$.LC52, %esi
	call	dlsym
.LVL632:
	movq	%rax, %r12
.LVL633:
	.loc 1 6657 13 is_stmt 1 view .LVU2109
	.loc 1 6661 5 view .LVU2110
	testq	%rax, %rax
	je	.L658
.LVL634:
.L608:
	.loc 1 6665 5 view .LVU2111
	.loc 1 6666 5 view .LVU2112
	.loc 1 6666 5 is_stmt 0 view .LVU2113
.LBE1504:
.LBE1506:
.LBB1507:
.LBB1508:
	.loc 1 6646 17 view .LVU2114
	movq	112(%rbx), %rdi
	movl	$.LC53, %ecx
	movl	$.LC64, %edx
	xorl	%eax, %eax
.LBE1508:
.LBE1507:
	.loc 1 19510 50 view .LVU2115
	movq	%r12, 464(%rbx)
	.loc 1 19511 5 is_stmt 1 view .LVU2116
	.loc 1 19511 69 is_stmt 0 view .LVU2117
	movq	424(%rbx), %r12
.LVL635:
.LBB1517:
.LBI1507:
	.loc 1 6642 16 is_stmt 1 view .LVU2118
.LBB1515:
	.loc 1 6644 5 view .LVU2119
	.loc 1 6646 5 view .LVU2120
.LBB1509:
.LBI1509:
	.loc 1 28929 16 view .LVU2121
.LBB1510:
	.loc 1 28931 5 view .LVU2122
	.loc 1 28935 5 view .LVU2123
	.loc 1 28935 5 is_stmt 0 view .LVU2124
.LBE1510:
.LBE1509:
	.loc 1 6646 17 view .LVU2125
	movl	$4, %esi
	call	ma_log_postf.constprop.0
.LVL636:
	.loc 1 6652 13 is_stmt 1 view .LVU2126
	.loc 1 6653 13 view .LVU2127
	.loc 1 6655 5 view .LVU2128
	.loc 1 6655 26 is_stmt 0 view .LVU2129
	movq	%r12, %rdi
	movl	$.LC53, %esi
	call	dlsym
.LVL637:
	movq	%rax, %r12
.LVL638:
	.loc 1 6657 13 is_stmt 1 view .LVU2130
	.loc 1 6661 5 view .LVU2131
	testq	%rax, %rax
	je	.L659
.LVL639:
.L609:
	.loc 1 6665 5 view .LVU2132
	.loc 1 6666 5 view .LVU2133
	.loc 1 6666 5 is_stmt 0 view .LVU2134
.LBE1515:
.LBE1517:
.LBB1518:
.LBB1519:
	.loc 1 6646 17 view .LVU2135
	movq	112(%rbx), %rdi
	movl	$.LC54, %ecx
	movl	$.LC64, %edx
	xorl	%eax, %eax
.LBE1519:
.LBE1518:
	.loc 1 19511 50 view .LVU2136
	movq	%r12, 472(%rbx)
	.loc 1 19512 5 is_stmt 1 view .LVU2137
	.loc 1 19512 69 is_stmt 0 view .LVU2138
	movq	424(%rbx), %r12
.LVL640:
.LBB1528:
.LBI1518:
	.loc 1 6642 16 is_stmt 1 view .LVU2139
.LBB1526:
	.loc 1 6644 5 view .LVU2140
	.loc 1 6646 5 view .LVU2141
.LBB1520:
.LBI1520:
	.loc 1 28929 16 view .LVU2142
.LBB1521:
	.loc 1 28931 5 view .LVU2143
	.loc 1 28935 5 view .LVU2144
	.loc 1 28935 5 is_stmt 0 view .LVU2145
.LBE1521:
.LBE1520:
	.loc 1 6646 17 view .LVU2146
	movl	$4, %esi
	call	ma_log_postf.constprop.0
.LVL641:
	.loc 1 6652 13 is_stmt 1 view .LVU2147
	.loc 1 6653 13 view .LVU2148
	.loc 1 6655 5 view .LVU2149
	.loc 1 6655 26 is_stmt 0 view .LVU2150
	movq	%r12, %rdi
	movl	$.LC54, %esi
	call	dlsym
.LVL642:
	movq	%rax, %r12
.LVL643:
	.loc 1 6657 13 is_stmt 1 view .LVU2151
	.loc 1 6661 5 view .LVU2152
	testq	%rax, %rax
	je	.L660
.LVL644:
.L610:
	.loc 1 6665 5 view .LVU2153
	.loc 1 6666 5 view .LVU2154
	.loc 1 6666 5 is_stmt 0 view .LVU2155
.LBE1526:
.LBE1528:
.LBB1529:
.LBB1530:
	.loc 1 6646 17 view .LVU2156
	movq	112(%rbx), %rdi
	movl	$.LC55, %ecx
	movl	$.LC64, %edx
	xorl	%eax, %eax
.LBE1530:
.LBE1529:
	.loc 1 19512 50 view .LVU2157
	movq	%r12, 480(%rbx)
	.loc 1 19513 5 is_stmt 1 view .LVU2158
	.loc 1 19513 69 is_stmt 0 view .LVU2159
	movq	424(%rbx), %r12
.LVL645:
.LBB1539:
.LBI1529:
	.loc 1 6642 16 is_stmt 1 view .LVU2160
.LBB1537:
	.loc 1 6644 5 view .LVU2161
	.loc 1 6646 5 view .LVU2162
.LBB1531:
.LBI1531:
	.loc 1 28929 16 view .LVU2163
.LBB1532:
	.loc 1 28931 5 view .LVU2164
	.loc 1 28935 5 view .LVU2165
	.loc 1 28935 5 is_stmt 0 view .LVU2166
.LBE1532:
.LBE1531:
	.loc 1 6646 17 view .LVU2167
	movl	$4, %esi
	call	ma_log_postf.constprop.0
.LVL646:
	.loc 1 6652 13 is_stmt 1 view .LVU2168
	.loc 1 6653 13 view .LVU2169
	.loc 1 6655 5 view .LVU2170
	.loc 1 6655 26 is_stmt 0 view .LVU2171
	movq	%r12, %rdi
	movl	$.LC55, %esi
	call	dlsym
.LVL647:
	movq	%rax, %r12
.LVL648:
	.loc 1 6657 13 is_stmt 1 view .LVU2172
	.loc 1 6661 5 view .LVU2173
	testq	%rax, %rax
	je	.L661
.LVL649:
.L611:
	.loc 1 6665 5 view .LVU2174
	.loc 1 6666 5 view .LVU2175
	.loc 1 6666 5 is_stmt 0 view .LVU2176
.LBE1537:
.LBE1539:
.LBB1540:
.LBB1541:
	.loc 1 6646 17 view .LVU2177
	movq	112(%rbx), %rdi
	movl	$.LC56, %ecx
	movl	$.LC64, %edx
	xorl	%eax, %eax
.LBE1541:
.LBE1540:
	.loc 1 19513 50 view .LVU2178
	movq	%r12, 488(%rbx)
	.loc 1 19514 5 is_stmt 1 view .LVU2179
	.loc 1 19514 69 is_stmt 0 view .LVU2180
	movq	424(%rbx), %r12
.LVL650:
.LBB1550:
.LBI1540:
	.loc 1 6642 16 is_stmt 1 view .LVU2181
.LBB1548:
	.loc 1 6644 5 view .LVU2182
	.loc 1 6646 5 view .LVU2183
.LBB1542:
.LBI1542:
	.loc 1 28929 16 view .LVU2184
.LBB1543:
	.loc 1 28931 5 view .LVU2185
	.loc 1 28935 5 view .LVU2186
	.loc 1 28935 5 is_stmt 0 view .LVU2187
.LBE1543:
.LBE1542:
	.loc 1 6646 17 view .LVU2188
	movl	$4, %esi
	call	ma_log_postf.constprop.0
.LVL651:
	.loc 1 6652 13 is_stmt 1 view .LVU2189
	.loc 1 6653 13 view .LVU2190
	.loc 1 6655 5 view .LVU2191
	.loc 1 6655 26 is_stmt 0 view .LVU2192
	movq	%r12, %rdi
	movl	$.LC56, %esi
	call	dlsym
.LVL652:
	movq	%rax, %r12
.LVL653:
	.loc 1 6657 13 is_stmt 1 view .LVU2193
	.loc 1 6661 5 view .LVU2194
	testq	%rax, %rax
	je	.L662
.LVL654:
.L612:
	.loc 1 6665 5 view .LVU2195
	.loc 1 6666 5 view .LVU2196
	.loc 1 6666 5 is_stmt 0 view .LVU2197
.LBE1548:
.LBE1550:
.LBB1551:
.LBB1552:
	.loc 1 6646 17 view .LVU2198
	movq	112(%rbx), %rdi
	movl	$.LC57, %ecx
	movl	$.LC64, %edx
	xorl	%eax, %eax
.LBE1552:
.LBE1551:
	.loc 1 19514 50 view .LVU2199
	movq	%r12, 496(%rbx)
	.loc 1 19515 5 is_stmt 1 view .LVU2200
	.loc 1 19515 69 is_stmt 0 view .LVU2201
	movq	424(%rbx), %r12
.LVL655:
.LBB1561:
.LBI1551:
	.loc 1 6642 16 is_stmt 1 view .LVU2202
.LBB1559:
	.loc 1 6644 5 view .LVU2203
	.loc 1 6646 5 view .LVU2204
.LBB1553:
.LBI1553:
	.loc 1 28929 16 view .LVU2205
.LBB1554:
	.loc 1 28931 5 view .LVU2206
	.loc 1 28935 5 view .LVU2207
	.loc 1 28935 5 is_stmt 0 view .LVU2208
.LBE1554:
.LBE1553:
	.loc 1 6646 17 view .LVU2209
	movl	$4, %esi
	call	ma_log_postf.constprop.0
.LVL656:
	.loc 1 6652 13 is_stmt 1 view .LVU2210
	.loc 1 6653 13 view .LVU2211
	.loc 1 6655 5 view .LVU2212
	.loc 1 6655 26 is_stmt 0 view .LVU2213
	movq	%r12, %rdi
	movl	$.LC57, %esi
	call	dlsym
.LVL657:
	movq	%rax, %r12
.LVL658:
	.loc 1 6657 13 is_stmt 1 view .LVU2214
	.loc 1 6661 5 view .LVU2215
	testq	%rax, %rax
	je	.L663
.LVL659:
.L613:
	.loc 1 6665 5 view .LVU2216
	.loc 1 6666 5 view .LVU2217
	.loc 1 6666 5 is_stmt 0 view .LVU2218
.LBE1559:
.LBE1561:
.LBB1562:
.LBB1563:
	.loc 1 6646 17 view .LVU2219
	movq	112(%rbx), %rdi
	movl	$.LC58, %ecx
	movl	$.LC64, %edx
	xorl	%eax, %eax
.LBE1563:
.LBE1562:
	.loc 1 19515 50 view .LVU2220
	movq	%r12, 504(%rbx)
	.loc 1 19516 5 is_stmt 1 view .LVU2221
	.loc 1 19516 69 is_stmt 0 view .LVU2222
	movq	424(%rbx), %r12
.LVL660:
.LBB1572:
.LBI1562:
	.loc 1 6642 16 is_stmt 1 view .LVU2223
.LBB1570:
	.loc 1 6644 5 view .LVU2224
	.loc 1 6646 5 view .LVU2225
.LBB1564:
.LBI1564:
	.loc 1 28929 16 view .LVU2226
.LBB1565:
	.loc 1 28931 5 view .LVU2227
	.loc 1 28935 5 view .LVU2228
	.loc 1 28935 5 is_stmt 0 view .LVU2229
.LBE1565:
.LBE1564:
	.loc 1 6646 17 view .LVU2230
	movl	$4, %esi
	call	ma_log_postf.constprop.0
.LVL661:
	.loc 1 6652 13 is_stmt 1 view .LVU2231
	.loc 1 6653 13 view .LVU2232
	.loc 1 6655 5 view .LVU2233
	.loc 1 6655 26 is_stmt 0 view .LVU2234
	movq	%r12, %rdi
	movl	$.LC58, %esi
	call	dlsym
.LVL662:
	movq	%rax, %r12
.LVL663:
	.loc 1 6657 13 is_stmt 1 view .LVU2235
	.loc 1 6661 5 view .LVU2236
	testq	%rax, %rax
	je	.L664
.LVL664:
.L614:
	.loc 1 6665 5 view .LVU2237
	.loc 1 6666 5 view .LVU2238
	.loc 1 6666 5 is_stmt 0 view .LVU2239
.LBE1570:
.LBE1572:
.LBB1573:
.LBB1574:
	.loc 1 6646 17 view .LVU2240
	movq	112(%rbx), %rdi
	movl	$.LC59, %ecx
	movl	$.LC64, %edx
	xorl	%eax, %eax
.LBE1574:
.LBE1573:
	.loc 1 19516 50 view .LVU2241
	movq	%r12, 512(%rbx)
	.loc 1 19517 5 is_stmt 1 view .LVU2242
	.loc 1 19517 69 is_stmt 0 view .LVU2243
	movq	424(%rbx), %r12
.LVL665:
.LBB1583:
.LBI1573:
	.loc 1 6642 16 is_stmt 1 view .LVU2244
.LBB1581:
	.loc 1 6644 5 view .LVU2245
	.loc 1 6646 5 view .LVU2246
.LBB1575:
.LBI1575:
	.loc 1 28929 16 view .LVU2247
.LBB1576:
	.loc 1 28931 5 view .LVU2248
	.loc 1 28935 5 view .LVU2249
	.loc 1 28935 5 is_stmt 0 view .LVU2250
.LBE1576:
.LBE1575:
	.loc 1 6646 17 view .LVU2251
	movl	$4, %esi
	call	ma_log_postf.constprop.0
.LVL666:
	.loc 1 6652 13 is_stmt 1 view .LVU2252
	.loc 1 6653 13 view .LVU2253
	.loc 1 6655 5 view .LVU2254
	.loc 1 6655 26 is_stmt 0 view .LVU2255
	movq	%r12, %rdi
	movl	$.LC59, %esi
	call	dlsym
.LVL667:
	movq	%rax, %r12
.LVL668:
	.loc 1 6657 13 is_stmt 1 view .LVU2256
	.loc 1 6661 5 view .LVU2257
	testq	%rax, %rax
	je	.L665
.LVL669:
.L615:
	.loc 1 6665 5 view .LVU2258
	.loc 1 6666 5 view .LVU2259
	.loc 1 6666 5 is_stmt 0 view .LVU2260
.LBE1581:
.LBE1583:
.LBB1584:
.LBB1585:
	.loc 1 6646 17 view .LVU2261
	movq	112(%rbx), %rdi
	movl	$.LC60, %ecx
	movl	$.LC64, %edx
	xorl	%eax, %eax
.LBE1585:
.LBE1584:
	.loc 1 19517 50 view .LVU2262
	movq	%r12, 520(%rbx)
	.loc 1 19518 5 is_stmt 1 view .LVU2263
	.loc 1 19518 69 is_stmt 0 view .LVU2264
	movq	424(%rbx), %r12
.LVL670:
.LBB1594:
.LBI1584:
	.loc 1 6642 16 is_stmt 1 view .LVU2265
.LBB1592:
	.loc 1 6644 5 view .LVU2266
	.loc 1 6646 5 view .LVU2267
.LBB1586:
.LBI1586:
	.loc 1 28929 16 view .LVU2268
.LBB1587:
	.loc 1 28931 5 view .LVU2269
	.loc 1 28935 5 view .LVU2270
	.loc 1 28935 5 is_stmt 0 view .LVU2271
.LBE1587:
.LBE1586:
	.loc 1 6646 17 view .LVU2272
	movl	$4, %esi
	call	ma_log_postf.constprop.0
.LVL671:
	.loc 1 6652 13 is_stmt 1 view .LVU2273
	.loc 1 6653 13 view .LVU2274
	.loc 1 6655 5 view .LVU2275
	.loc 1 6655 26 is_stmt 0 view .LVU2276
	movq	%r12, %rdi
	movl	$.LC60, %esi
	call	dlsym
.LVL672:
	movq	%rax, %r12
.LVL673:
	.loc 1 6657 13 is_stmt 1 view .LVU2277
	.loc 1 6661 5 view .LVU2278
	testq	%rax, %rax
	je	.L666
.LVL674:
.L616:
	.loc 1 6665 5 view .LVU2279
	.loc 1 6666 5 view .LVU2280
	.loc 1 6666 5 is_stmt 0 view .LVU2281
.LBE1592:
.LBE1594:
.LBB1595:
.LBB1596:
	.loc 1 6646 17 view .LVU2282
	movq	112(%rbx), %rdi
	movl	$.LC61, %ecx
	movl	$.LC64, %edx
	xorl	%eax, %eax
.LBE1596:
.LBE1595:
	.loc 1 19518 50 view .LVU2283
	movq	%r12, 528(%rbx)
	.loc 1 19519 5 is_stmt 1 view .LVU2284
	.loc 1 19519 69 is_stmt 0 view .LVU2285
	movq	424(%rbx), %r12
.LVL675:
.LBB1605:
.LBI1595:
	.loc 1 6642 16 is_stmt 1 view .LVU2286
.LBB1603:
	.loc 1 6644 5 view .LVU2287
	.loc 1 6646 5 view .LVU2288
.LBB1597:
.LBI1597:
	.loc 1 28929 16 view .LVU2289
.LBB1598:
	.loc 1 28931 5 view .LVU2290
	.loc 1 28935 5 view .LVU2291
	.loc 1 28935 5 is_stmt 0 view .LVU2292
.LBE1598:
.LBE1597:
	.loc 1 6646 17 view .LVU2293
	movl	$4, %esi
	call	ma_log_postf.constprop.0
.LVL676:
	.loc 1 6652 13 is_stmt 1 view .LVU2294
	.loc 1 6653 13 view .LVU2295
	.loc 1 6655 5 view .LVU2296
	.loc 1 6655 26 is_stmt 0 view .LVU2297
	movq	%r12, %rdi
	movl	$.LC61, %esi
	call	dlsym
.LVL677:
	movq	%rax, %r12
.LVL678:
	.loc 1 6657 13 is_stmt 1 view .LVU2298
	.loc 1 6661 5 view .LVU2299
	testq	%rax, %rax
	je	.L667
.LVL679:
.L617:
	.loc 1 6665 5 view .LVU2300
	.loc 1 6666 5 view .LVU2301
	.loc 1 6666 5 is_stmt 0 view .LVU2302
.LBE1603:
.LBE1605:
.LBB1606:
.LBB1607:
	.loc 1 6646 17 view .LVU2303
	movq	112(%rbx), %rdi
	movl	$.LC62, %ecx
	movl	$.LC64, %edx
	xorl	%eax, %eax
.LBE1607:
.LBE1606:
	.loc 1 19519 50 view .LVU2304
	movq	%r12, 536(%rbx)
	.loc 1 19520 5 is_stmt 1 view .LVU2305
	.loc 1 19520 69 is_stmt 0 view .LVU2306
	movq	424(%rbx), %r12
.LVL680:
.LBB1616:
.LBI1606:
	.loc 1 6642 16 is_stmt 1 view .LVU2307
.LBB1614:
	.loc 1 6644 5 view .LVU2308
	.loc 1 6646 5 view .LVU2309
.LBB1608:
.LBI1608:
	.loc 1 28929 16 view .LVU2310
.LBB1609:
	.loc 1 28931 5 view .LVU2311
	.loc 1 28935 5 view .LVU2312
	.loc 1 28935 5 is_stmt 0 view .LVU2313
.LBE1609:
.LBE1608:
	.loc 1 6646 17 view .LVU2314
	movl	$4, %esi
	call	ma_log_postf.constprop.0
.LVL681:
	.loc 1 6652 13 is_stmt 1 view .LVU2315
	.loc 1 6653 13 view .LVU2316
	.loc 1 6655 5 view .LVU2317
	.loc 1 6655 26 is_stmt 0 view .LVU2318
	movq	%r12, %rdi
	movl	$.LC62, %esi
	call	dlsym
.LVL682:
	movq	%rax, %r12
.LVL683:
	.loc 1 6657 13 is_stmt 1 view .LVU2319
	.loc 1 6661 5 view .LVU2320
	testq	%rax, %rax
	je	.L668
.LVL684:
.L618:
	.loc 1 6665 5 view .LVU2321
	.loc 1 6666 5 view .LVU2322
	.loc 1 6666 5 is_stmt 0 view .LVU2323
.LBE1614:
.LBE1616:
.LBB1617:
.LBB1618:
	.loc 1 6646 17 view .LVU2324
	movq	112(%rbx), %rdi
	movl	$.LC63, %ecx
	movl	$.LC64, %edx
	xorl	%eax, %eax
.LBE1618:
.LBE1617:
	.loc 1 19520 50 view .LVU2325
	movq	%r12, 544(%rbx)
	.loc 1 19521 5 is_stmt 1 view .LVU2326
	.loc 1 19521 69 is_stmt 0 view .LVU2327
	movq	424(%rbx), %r12
.LVL685:
.LBB1627:
.LBI1617:
	.loc 1 6642 16 is_stmt 1 view .LVU2328
.LBB1625:
	.loc 1 6644 5 view .LVU2329
	.loc 1 6646 5 view .LVU2330
.LBB1619:
.LBI1619:
	.loc 1 28929 16 view .LVU2331
.LBB1620:
	.loc 1 28931 5 view .LVU2332
	.loc 1 28935 5 view .LVU2333
	.loc 1 28935 5 is_stmt 0 view .LVU2334
.LBE1620:
.LBE1619:
	.loc 1 6646 17 view .LVU2335
	movl	$4, %esi
	call	ma_log_postf.constprop.0
.LVL686:
	.loc 1 6652 13 is_stmt 1 view .LVU2336
	.loc 1 6653 13 view .LVU2337
	.loc 1 6655 5 view .LVU2338
	.loc 1 6655 26 is_stmt 0 view .LVU2339
	movq	%r12, %rdi
	movl	$.LC63, %esi
	call	dlsym
.LVL687:
	movq	%rax, %r12
.LVL688:
	.loc 1 6657 13 is_stmt 1 view .LVU2340
	.loc 1 6661 5 view .LVU2341
	testq	%rax, %rax
	je	.L669
.LVL689:
.L619:
	.loc 1 6665 5 view .LVU2342
	.loc 1 6666 5 view .LVU2343
	.loc 1 6666 5 is_stmt 0 view .LVU2344
.LBE1625:
.LBE1627:
	.loc 1 19562 23 view .LVU2345
	movq	-88(%rbp), %rax
	.loc 1 19521 50 view .LVU2346
	movq	%r12, 552(%rbx)
	.loc 1 19562 5 is_stmt 1 view .LVU2347
	.loc 1 19562 23 is_stmt 0 view .LVU2348
	movq	112(%rax), %r12
	.loc 1 19562 5 view .LVU2349
	testq	%r12, %r12
	jne	.L670
.L628:
	.loc 1 19565 5 is_stmt 1 view .LVU2350
	.loc 1 19565 51 is_stmt 0 view .LVU2351
	movq	-88(%rbp), %rax
.LBB1628:
	.loc 1 19573 56 view .LVU2352
	leaq	-72(%rbp), %rsi
	movq	%rbx, %rdi
.LBE1628:
	.loc 1 19565 51 view .LVU2353
	movl	120(%rax), %eax
	.loc 1 19565 35 view .LVU2354
	movl	%eax, 568(%rbx)
	.loc 1 19571 5 is_stmt 1 view .LVU2355
.LBB1631:
	.loc 1 19572 9 view .LVU2356
	.loc 1 19573 9 view .LVU2357
	.loc 1 19573 56 is_stmt 0 view .LVU2358
	call	_ZL28ma_context_open_client__jackP10ma_contextPP16ma_jack_client_t
.LVL690:
	movl	%eax, %r12d
.LVL691:
	.loc 1 19574 9 is_stmt 1 view .LVU2359
	testl	%eax, %eax
	jne	.L671
	.loc 1 19582 9 view .LVU2360
	.loc 1 19582 70 is_stmt 0 view .LVU2361
	movq	-72(%rbp), %rdi
	call	*440(%rbx)
.LVL692:
	.loc 1 19582 70 view .LVU2362
.LBE1631:
	.loc 1 19586 5 is_stmt 1 view .LVU2363
	.loc 1 19587 5 view .LVU2364
	.loc 1 19588 5 view .LVU2365
	.loc 1 19589 5 view .LVU2366
	.loc 1 19590 5 view .LVU2367
	.loc 1 19591 5 view .LVU2368
	.loc 1 19592 5 view .LVU2369
	.loc 1 19593 5 view .LVU2370
	.loc 1 19586 43 is_stmt 0 view .LVU2371
	movl	$_ZL21ma_context_init__jackP10ma_contextPK17ma_context_configP20ma_backend_callbacks.lto_priv.0, %eax
	.loc 1 19596 43 view .LVU2372
	movq	$0, 80(%r13)
	.loc 1 19586 43 view .LVU2373
	movq	%rax, %xmm0
	movl	$_ZL34ma_context_enumerate_devices__jackP10ma_contextPFjS0_14ma_device_typePK14ma_device_infoPvES5_, %eax
	movhps	.LC66(%rip), %xmm0
	movups	%xmm0, 0(%r13)
	movq	%rax, %xmm0
	movl	$_ZL20ma_device_init__jackP9ma_devicePK16ma_device_configP20ma_device_descriptorS5_, %eax
	movhps	.LC67(%rip), %xmm0
	movups	%xmm0, 16(%r13)
	movq	%rax, %xmm0
	movl	$_ZL21ma_device_start__jackP9ma_device, %eax
	movhps	.LC68(%rip), %xmm0
	movups	%xmm0, 32(%r13)
	movq	%rax, %xmm0
	movhps	.LC69(%rip), %xmm0
	movups	%xmm0, 48(%r13)
	.loc 1 19594 5 is_stmt 1 view .LVU2374
	.loc 1 19595 5 view .LVU2375
	.loc 1 19594 43 is_stmt 0 view .LVU2376
	pxor	%xmm0, %xmm0
	movups	%xmm0, 64(%r13)
	.loc 1 19596 5 is_stmt 1 view .LVU2377
	.loc 1 19598 5 view .LVU2378
.LVL693:
.L599:
	.loc 1 19599 1 is_stmt 0 view .LVU2379
	addq	$56, %rsp
	movl	%r12d, %eax
	popq	%rbx
.LVL694:
	.loc 1 19599 1 view .LVU2380
	popq	%r12
	popq	%r13
.LVL695:
	.loc 1 19599 1 view .LVU2381
	popq	%r14
	popq	%r15
	popq	%rbp
	.cfi_remember_state
	.cfi_def_cfa 7, 8
	ret
.LVL696:
	.p2align 4,,10
	.p2align 3
.L653:
	.cfi_restore_state
.LBB1632:
.LBB1449:
.LBB1443:
.LBI1443:
	.loc 1 6596 18 is_stmt 1 view .LVU2382
.LBB1444:
	.loc 1 6624 9 view .LVU2383
.LBB1445:
.LBI1445:
	.loc 1 28929 16 view .LVU2384
.LBB1446:
	.loc 1 28931 5 view .LVU2385
	.loc 1 28935 5 view .LVU2386
	.loc 1 28935 22 is_stmt 0 view .LVU2387
	movq	112(%rbx), %r12
.LVL697:
.L644:
	.loc 1 28935 22 view .LVU2388
.LBE1446:
.LBE1445:
	.loc 1 6624 21 view .LVU2389
	movq	%r14, %rcx
	movl	$.LC46, %edx
	movl	$3, %esi
	movq	%r12, %rdi
	xorl	%eax, %eax
.LBE1444:
.LBE1443:
.LBE1449:
.LBE1632:
	.loc 1 19495 19 view .LVU2390
	addq	$8, %r15
.LBB1633:
.LBB1450:
.LBB1448:
.LBB1447:
	.loc 1 6624 21 view .LVU2391
	call	ma_log_postf
.LVL698:
.LBE1447:
.LBE1448:
	.loc 1 6627 5 is_stmt 1 view .LVU2392
	.loc 1 6628 5 view .LVU2393
	.loc 1 6628 5 is_stmt 0 view .LVU2394
.LBE1450:
.LBE1633:
	.loc 1 19495 19 view .LVU2395
	leaq	-48(%rbp), %rax
	.loc 1 19496 31 view .LVU2396
	movq	$0, 424(%rbx)
	.loc 1 19497 9 is_stmt 1 view .LVU2397
	.loc 1 19495 5 view .LVU2398
	.loc 1 19495 19 view .LVU2399
	cmpq	%r15, %rax
	jne	.L603
	.loc 1 19503 16 is_stmt 0 view .LVU2400
	movl	$-103, %r12d
	jmp	.L599
	.p2align 4,,10
	.p2align 3
.L670:
	.loc 1 19563 9 is_stmt 1 view .LVU2401
.LVL699:
.LBB1634:
.LBI1634:
	.loc 1 1207 14 view .LVU2402
.LBB1635:
	.loc 1 1209 5 view .LVU2403
	.loc 1 1210 5 view .LVU2404
	.loc 1 1212 5 view .LVU2405
	.loc 1 1216 5 view .LVU2406
	.loc 1 1216 16 is_stmt 0 view .LVU2407
	movq	%r12, %rdi
	call	strlen
.LVL700:
	.loc 1 1216 8 view .LVU2408
	leaq	1(%rax), %r15
.LVL701:
	.loc 1 1217 5 is_stmt 1 view .LVU2409
.LBB1636:
.LBI1636:
	.loc 1 44050 14 view .LVU2410
.LBB1637:
	.loc 1 44052 5 view .LVU2411
	.loc 1 44053 9 view .LVU2412
	.loc 1 44053 35 is_stmt 0 view .LVU2413
	movq	296(%rbx), %rax
	.loc 1 44053 9 view .LVU2414
	testq	%rax, %rax
	je	.L620
	.loc 1 44054 13 is_stmt 1 view .LVU2415
	.loc 1 44054 50 is_stmt 0 view .LVU2416
	movq	%r15, %rdi
	movq	288(%rbx), %rsi
	call	*%rax
.LVL702:
	movq	%rax, %rdi
.LVL703:
	.loc 1 44054 50 view .LVU2417
.LBE1637:
.LBE1636:
	.loc 1 1218 5 is_stmt 1 view .LVU2418
	testq	%rax, %rax
	je	.L620
	movq	%rax, %rdx
	leaq	(%rdi,%r15), %rsi
	movq	%r12, %rax
.LVL704:
	.p2align 4,,10
	.p2align 3
.L623:
.LBB1638:
.LBB1639:
.LBB1640:
.LBB1641:
	.loc 1 934 44 is_stmt 0 view .LVU2419
	movzbl	(%rax), %ecx
	.loc 1 934 36 view .LVU2420
	testb	%cl, %cl
	je	.L621
	.loc 1 935 16 view .LVU2421
	movb	%cl, (%rdx)
.LVL705:
	.loc 1 934 36 view .LVU2422
	addq	$1, %rdx
.LVL706:
	.loc 1 934 36 view .LVU2423
	addq	$1, %rax
	cmpq	%rdx, %rsi
	jne	.L623
	.loc 1 943 12 view .LVU2424
	movb	$0, (%rdi)
.LVL707:
.L625:
	.loc 1 943 12 view .LVU2425
.LBE1641:
.LBE1640:
.LBE1639:
.LBE1638:
.LBE1635:
.LBE1634:
	.loc 1 19563 36 view .LVU2426
	movq	%rdi, 560(%rbx)
	jmp	.L628
.LVL708:
	.p2align 4,,10
	.p2align 3
.L669:
.LBB1647:
.LBB1626:
.LBB1621:
.LBI1621:
	.loc 1 6642 16 is_stmt 1 view .LVU2427
.LBB1622:
	.loc 1 6662 9 view .LVU2428
.LBB1623:
.LBI1623:
	.loc 1 28929 16 view .LVU2429
.LBB1624:
	.loc 1 28931 5 view .LVU2430
	.loc 1 28935 5 view .LVU2431
	.loc 1 28935 5 is_stmt 0 view .LVU2432
.LBE1624:
.LBE1623:
	.loc 1 6662 21 view .LVU2433
	movq	112(%rbx), %rdi
	movl	$.LC63, %ecx
	movl	$.LC48, %edx
	xorl	%eax, %eax
.LVL709:
	.loc 1 6662 21 view .LVU2434
	movl	$2, %esi
	call	ma_log_postf
.LVL710:
	jmp	.L619
.LVL711:
	.p2align 4,,10
	.p2align 3
.L668:
	.loc 1 6662 21 view .LVU2435
.LBE1622:
.LBE1621:
.LBE1626:
.LBE1647:
.LBB1648:
.LBB1615:
.LBB1610:
.LBI1610:
	.loc 1 6642 16 is_stmt 1 view .LVU2436
.LBB1611:
	.loc 1 6662 9 view .LVU2437
.LBB1612:
.LBI1612:
	.loc 1 28929 16 view .LVU2438
.LBB1613:
	.loc 1 28931 5 view .LVU2439
	.loc 1 28935 5 view .LVU2440
	.loc 1 28935 5 is_stmt 0 view .LVU2441
.LBE1613:
.LBE1612:
	.loc 1 6662 21 view .LVU2442
	movq	112(%rbx), %rdi
	movl	$.LC62, %ecx
	movl	$.LC48, %edx
	xorl	%eax, %eax
.LVL712:
	.loc 1 6662 21 view .LVU2443
	movl	$2, %esi
	call	ma_log_postf
.LVL713:
	jmp	.L618
.LVL714:
	.p2align 4,,10
	.p2align 3
.L667:
	.loc 1 6662 21 view .LVU2444
.LBE1611:
.LBE1610:
.LBE1615:
.LBE1648:
.LBB1649:
.LBB1604:
.LBB1599:
.LBI1599:
	.loc 1 6642 16 is_stmt 1 view .LVU2445
.LBB1600:
	.loc 1 6662 9 view .LVU2446
.LBB1601:
.LBI1601:
	.loc 1 28929 16 view .LVU2447
.LBB1602:
	.loc 1 28931 5 view .LVU2448
	.loc 1 28935 5 view .LVU2449
	.loc 1 28935 5 is_stmt 0 view .LVU2450
.LBE1602:
.LBE1601:
	.loc 1 6662 21 view .LVU2451
	movq	112(%rbx), %rdi
	movl	$.LC61, %ecx
	movl	$.LC48, %edx
	xorl	%eax, %eax
.LVL715:
	.loc 1 6662 21 view .LVU2452
	movl	$2, %esi
	call	ma_log_postf
.LVL716:
	jmp	.L617
.LVL717:
	.p2align 4,,10
	.p2align 3
.L666:
	.loc 1 6662 21 view .LVU2453
.LBE1600:
.LBE1599:
.LBE1604:
.LBE1649:
.LBB1650:
.LBB1593:
.LBB1588:
.LBI1588:
	.loc 1 6642 16 is_stmt 1 view .LVU2454
.LBB1589:
	.loc 1 6662 9 view .LVU2455
.LBB1590:
.LBI1590:
	.loc 1 28929 16 view .LVU2456
.LBB1591:
	.loc 1 28931 5 view .LVU2457
	.loc 1 28935 5 view .LVU2458
	.loc 1 28935 5 is_stmt 0 view .LVU2459
.LBE1591:
.LBE1590:
	.loc 1 6662 21 view .LVU2460
	movq	112(%rbx), %rdi
	movl	$.LC60, %ecx
	movl	$.LC48, %edx
	xorl	%eax, %eax
.LVL718:
	.loc 1 6662 21 view .LVU2461
	movl	$2, %esi
	call	ma_log_postf
.LVL719:
	jmp	.L616
.LVL720:
	.p2align 4,,10
	.p2align 3
.L665:
	.loc 1 6662 21 view .LVU2462
.LBE1589:
.LBE1588:
.LBE1593:
.LBE1650:
.LBB1651:
.LBB1582:
.LBB1577:
.LBI1577:
	.loc 1 6642 16 is_stmt 1 view .LVU2463
.LBB1578:
	.loc 1 6662 9 view .LVU2464
.LBB1579:
.LBI1579:
	.loc 1 28929 16 view .LVU2465
.LBB1580:
	.loc 1 28931 5 view .LVU2466
	.loc 1 28935 5 view .LVU2467
	.loc 1 28935 5 is_stmt 0 view .LVU2468
.LBE1580:
.LBE1579:
	.loc 1 6662 21 view .LVU2469
	movq	112(%rbx), %rdi
	movl	$.LC59, %ecx
	movl	$.LC48, %edx
	xorl	%eax, %eax
.LVL721:
	.loc 1 6662 21 view .LVU2470
	movl	$2, %esi
	call	ma_log_postf
.LVL722:
	jmp	.L615
.LVL723:
	.p2align 4,,10
	.p2align 3
.L664:
	.loc 1 6662 21 view .LVU2471
.LBE1578:
.LBE1577:
.LBE1582:
.LBE1651:
.LBB1652:
.LBB1571:
.LBB1566:
.LBI1566:
	.loc 1 6642 16 is_stmt 1 view .LVU2472
.LBB1567:
	.loc 1 6662 9 view .LVU2473
.LBB1568:
.LBI1568:
	.loc 1 28929 16 view .LVU2474
.LBB1569:
	.loc 1 28931 5 view .LVU2475
	.loc 1 28935 5 view .LVU2476
	.loc 1 28935 5 is_stmt 0 view .LVU2477
.LBE1569:
.LBE1568:
	.loc 1 6662 21 view .LVU2478
	movq	112(%rbx), %rdi
	movl	$.LC58, %ecx
	movl	$.LC48, %edx
	xorl	%eax, %eax
.LVL724:
	.loc 1 6662 21 view .LVU2479
	movl	$2, %esi
	call	ma_log_postf
.LVL725:
	jmp	.L614
.LVL726:
	.p2align 4,,10
	.p2align 3
.L663:
	.loc 1 6662 21 view .LVU2480
.LBE1567:
.LBE1566:
.LBE1571:
.LBE1652:
.LBB1653:
.LBB1560:
.LBB1555:
.LBI1555:
	.loc 1 6642 16 is_stmt 1 view .LVU2481
.LBB1556:
	.loc 1 6662 9 view .LVU2482
.LBB1557:
.LBI1557:
	.loc 1 28929 16 view .LVU2483
.LBB1558:
	.loc 1 28931 5 view .LVU2484
	.loc 1 28935 5 view .LVU2485
	.loc 1 28935 5 is_stmt 0 view .LVU2486
.LBE1558:
.LBE1557:
	.loc 1 6662 21 view .LVU2487
	movq	112(%rbx), %rdi
	movl	$.LC57, %ecx
	movl	$.LC48, %edx
	xorl	%eax, %eax
.LVL727:
	.loc 1 6662 21 view .LVU2488
	movl	$2, %esi
	call	ma_log_postf
.LVL728:
	jmp	.L613
.LVL729:
	.p2align 4,,10
	.p2align 3
.L662:
	.loc 1 6662 21 view .LVU2489
.LBE1556:
.LBE1555:
.LBE1560:
.LBE1653:
.LBB1654:
.LBB1549:
.LBB1544:
.LBI1544:
	.loc 1 6642 16 is_stmt 1 view .LVU2490
.LBB1545:
	.loc 1 6662 9 view .LVU2491
.LBB1546:
.LBI1546:
	.loc 1 28929 16 view .LVU2492
.LBB1547:
	.loc 1 28931 5 view .LVU2493
	.loc 1 28935 5 view .LVU2494
	.loc 1 28935 5 is_stmt 0 view .LVU2495
.LBE1547:
.LBE1546:
	.loc 1 6662 21 view .LVU2496
	movq	112(%rbx), %rdi
	movl	$.LC56, %ecx
	movl	$.LC48, %edx
	xorl	%eax, %eax
.LVL730:
	.loc 1 6662 21 view .LVU2497
	movl	$2, %esi
	call	ma_log_postf
.LVL731:
	jmp	.L612
.LVL732:
	.p2align 4,,10
	.p2align 3
.L661:
	.loc 1 6662 21 view .LVU2498
.LBE1545:
.LBE1544:
.LBE1549:
.LBE1654:
.LBB1655:
.LBB1538:
.LBB1533:
.LBI1533:
	.loc 1 6642 16 is_stmt 1 view .LVU2499
.LBB1534:
	.loc 1 6662 9 view .LVU2500
.LBB1535:
.LBI1535:
	.loc 1 28929 16 view .LVU2501
.LBB1536:
	.loc 1 28931 5 view .LVU2502
	.loc 1 28935 5 view .LVU2503
	.loc 1 28935 5 is_stmt 0 view .LVU2504
.LBE1536:
.LBE1535:
	.loc 1 6662 21 view .LVU2505
	movq	112(%rbx), %rdi
	movl	$.LC55, %ecx
	movl	$.LC48, %edx
	xorl	%eax, %eax
.LVL733:
	.loc 1 6662 21 view .LVU2506
	movl	$2, %esi
	call	ma_log_postf
.LVL734:
	jmp	.L611
.LVL735:
	.p2align 4,,10
	.p2align 3
.L660:
	.loc 1 6662 21 view .LVU2507
.LBE1534:
.LBE1533:
.LBE1538:
.LBE1655:
.LBB1656:
.LBB1527:
.LBB1522:
.LBI1522:
	.loc 1 6642 16 is_stmt 1 view .LVU2508
.LBB1523:
	.loc 1 6662 9 view .LVU2509
.LBB1524:
.LBI1524:
	.loc 1 28929 16 view .LVU2510
.LBB1525:
	.loc 1 28931 5 view .LVU2511
	.loc 1 28935 5 view .LVU2512
	.loc 1 28935 5 is_stmt 0 view .LVU2513
.LBE1525:
.LBE1524:
	.loc 1 6662 21 view .LVU2514
	movq	112(%rbx), %rdi
	movl	$.LC54, %ecx
	movl	$.LC48, %edx
	xorl	%eax, %eax
.LVL736:
	.loc 1 6662 21 view .LVU2515
	movl	$2, %esi
	call	ma_log_postf
.LVL737:
	jmp	.L610
.LVL738:
	.p2align 4,,10
	.p2align 3
.L659:
	.loc 1 6662 21 view .LVU2516
.LBE1523:
.LBE1522:
.LBE1527:
.LBE1656:
.LBB1657:
.LBB1516:
.LBB1511:
.LBI1511:
	.loc 1 6642 16 is_stmt 1 view .LVU2517
.LBB1512:
	.loc 1 6662 9 view .LVU2518
.LBB1513:
.LBI1513:
	.loc 1 28929 16 view .LVU2519
.LBB1514:
	.loc 1 28931 5 view .LVU2520
	.loc 1 28935 5 view .LVU2521
	.loc 1 28935 5 is_stmt 0 view .LVU2522
.LBE1514:
.LBE1513:
	.loc 1 6662 21 view .LVU2523
	movq	112(%rbx), %rdi
	movl	$.LC53, %ecx
	movl	$.LC48, %edx
	xorl	%eax, %eax
.LVL739:
	.loc 1 6662 21 view .LVU2524
	movl	$2, %esi
	call	ma_log_postf
.LVL740:
	jmp	.L609
.LVL741:
	.p2align 4,,10
	.p2align 3
.L658:
	.loc 1 6662 21 view .LVU2525
.LBE1512:
.LBE1511:
.LBE1516:
.LBE1657:
.LBB1658:
.LBB1505:
.LBB1500:
.LBI1500:
	.loc 1 6642 16 is_stmt 1 view .LVU2526
.LBB1501:
	.loc 1 6662 9 view .LVU2527
.LBB1502:
.LBI1502:
	.loc 1 28929 16 view .LVU2528
.LBB1503:
	.loc 1 28931 5 view .LVU2529
	.loc 1 28935 5 view .LVU2530
	.loc 1 28935 5 is_stmt 0 view .LVU2531
.LBE1503:
.LBE1502:
	.loc 1 6662 21 view .LVU2532
	movq	112(%rbx), %rdi
	movl	$.LC52, %ecx
	movl	$.LC48, %edx
	xorl	%eax, %eax
.LVL742:
	.loc 1 6662 21 view .LVU2533
	movl	$2, %esi
	call	ma_log_postf
.LVL743:
	jmp	.L608
.LVL744:
	.p2align 4,,10
	.p2align 3
.L657:
	.loc 1 6662 21 view .LVU2534
.LBE1501:
.LBE1500:
.LBE1505:
.LBE1658:
.LBB1659:
.LBB1494:
.LBB1489:
.LBI1489:
	.loc 1 6642 16 is_stmt 1 view .LVU2535
.LBB1490:
	.loc 1 6662 9 view .LVU2536
.LBB1491:
.LBI1491:
	.loc 1 28929 16 view .LVU2537
.LBB1492:
	.loc 1 28931 5 view .LVU2538
	.loc 1 28935 5 view .LVU2539
	.loc 1 28935 5 is_stmt 0 view .LVU2540
.LBE1492:
.LBE1491:
	.loc 1 6662 21 view .LVU2541
	movq	112(%rbx), %rdi
	movl	$.LC51, %ecx
	movl	$.LC48, %edx
	xorl	%eax, %eax
.LVL745:
	.loc 1 6662 21 view .LVU2542
	movl	$2, %esi
	call	ma_log_postf
.LVL746:
	jmp	.L607
.LVL747:
	.p2align 4,,10
	.p2align 3
.L656:
	.loc 1 6662 21 view .LVU2543
.LBE1490:
.LBE1489:
.LBE1494:
.LBE1659:
.LBB1660:
.LBB1483:
.LBB1478:
.LBI1478:
	.loc 1 6642 16 is_stmt 1 view .LVU2544
.LBB1479:
	.loc 1 6662 9 view .LVU2545
.LBB1480:
.LBI1480:
	.loc 1 28929 16 view .LVU2546
.LBB1481:
	.loc 1 28931 5 view .LVU2547
	.loc 1 28935 5 view .LVU2548
	.loc 1 28935 5 is_stmt 0 view .LVU2549
.LBE1481:
.LBE1480:
	.loc 1 6662 21 view .LVU2550
	movq	112(%rbx), %rdi
	movl	$.LC50, %ecx
	movl	$.LC48, %edx
	xorl	%eax, %eax
.LVL748:
	.loc 1 6662 21 view .LVU2551
	movl	$2, %esi
	call	ma_log_postf
.LVL749:
	jmp	.L606
.LVL750:
	.p2align 4,,10
	.p2align 3
.L655:
	.loc 1 6662 21 view .LVU2552
.LBE1479:
.LBE1478:
.LBE1483:
.LBE1660:
.LBB1661:
.LBB1472:
.LBB1467:
.LBI1467:
	.loc 1 6642 16 is_stmt 1 view .LVU2553
.LBB1468:
	.loc 1 6662 9 view .LVU2554
.LBB1469:
.LBI1469:
	.loc 1 28929 16 view .LVU2555
.LBB1470:
	.loc 1 28931 5 view .LVU2556
	.loc 1 28935 5 view .LVU2557
	.loc 1 28935 5 is_stmt 0 view .LVU2558
.LBE1470:
.LBE1469:
	.loc 1 6662 21 view .LVU2559
	movq	112(%rbx), %rdi
	movl	$.LC49, %ecx
	movl	$.LC48, %edx
	xorl	%eax, %eax
.LVL751:
	.loc 1 6662 21 view .LVU2560
	movl	$2, %esi
	call	ma_log_postf
.LVL752:
	jmp	.L605
.LVL753:
	.p2align 4,,10
	.p2align 3
.L654:
	.loc 1 6662 21 view .LVU2561
.LBE1468:
.LBE1467:
.LBE1472:
.LBE1661:
.LBB1662:
.LBB1461:
.LBB1456:
.LBI1456:
	.loc 1 6642 16 is_stmt 1 view .LVU2562
.LBB1457:
	.loc 1 6662 9 view .LVU2563
.LBB1458:
.LBI1458:
	.loc 1 28929 16 view .LVU2564
.LBB1459:
	.loc 1 28931 5 view .LVU2565
	.loc 1 28935 5 view .LVU2566
	.loc 1 28935 5 is_stmt 0 view .LVU2567
.LBE1459:
.LBE1458:
	.loc 1 6662 21 view .LVU2568
	movq	112(%rbx), %rdi
	movl	$.LC47, %ecx
	movl	$.LC48, %edx
	xorl	%eax, %eax
.LVL754:
	.loc 1 6662 21 view .LVU2569
	movl	$2, %esi
	call	ma_log_postf
.LVL755:
	jmp	.L604
.LVL756:
	.p2align 4,,10
	.p2align 3
.L600:
	.loc 1 6662 21 view .LVU2570
.LBE1457:
.LBE1456:
.LBE1461:
.LBE1662:
.LBB1663:
.LBB1451:
	.loc 1 6600 17 view .LVU2571
	movq	%r14, %rcx
	movl	$.LC45, %edx
	movl	$4, %esi
	xorl	%edi, %edi
	xorl	%eax, %eax
	call	ma_log_postf.constprop.0
.LVL757:
	.loc 1 6616 5 is_stmt 1 view .LVU2572
	.loc 1 6616 31 is_stmt 0 view .LVU2573
	movl	$2, %esi
	movq	%r14, %rdi
	call	dlopen
.LVL758:
	movq	%rax, %r12
.LVL759:
	.loc 1 6623 5 is_stmt 1 view .LVU2574
	testq	%rax, %rax
	jne	.L601
	jmp	.L644
.LVL760:
	.p2align 4,,10
	.p2align 3
.L621:
	.loc 1 6623 5 is_stmt 0 view .LVU2575
.LBE1451:
.LBE1663:
.LBB1664:
.LBB1646:
.LBB1645:
.LBB1644:
.LBB1643:
.LBB1642:
	.loc 1 939 16 view .LVU2576
	movb	$0, (%rdx)
	.loc 1 940 16 view .LVU2577
	jmp	.L625
.LVL761:
	.p2align 4,,10
	.p2align 3
.L620:
	.loc 1 940 16 view .LVU2578
.LBE1642:
.LBE1643:
.LBE1644:
.LBE1645:
	.loc 1 1219 16 view .LVU2579
	xorl	%edi, %edi
	jmp	.L625
.LVL762:
.L671:
	.loc 1 1219 16 view .LVU2580
.LBE1646:
.LBE1664:
.LBB1665:
	.loc 1 19575 13 is_stmt 1 view .LVU2581
	.loc 1 19575 20 is_stmt 0 view .LVU2582
	movq	560(%rbx), %rdi
	.loc 1 19575 49 view .LVU2583
	leaq	288(%rbx), %rsi
	.loc 1 19579 20 view .LVU2584
	movl	$-103, %r12d
	.loc 1 19575 20 view .LVU2585
	call	ma_free
.LVL763:
	.loc 1 19577 13 is_stmt 1 view .LVU2586
.LBB1629:
.LBI1629:
	.loc 1 6631 13 view .LVU2587
.LBB1630:
	.loc 1 6636 5 view .LVU2588
	.loc 1 6636 12 is_stmt 0 view .LVU2589
	movq	424(%rbx), %rdi
	call	dlclose
.LVL764:
	.loc 1 6639 5 is_stmt 1 view .LVU2590
	.loc 1 6639 5 is_stmt 0 view .LVU2591
.LBE1630:
.LBE1629:
	.loc 1 19579 13 is_stmt 1 view .LVU2592
	jmp	.L599
.LBE1665:
	.cfi_endproc
.LFE97:
	.size	_ZL21ma_context_init__jackP10ma_contextPK17ma_context_configP20ma_backend_callbacks.lto_priv.0, .-_ZL21ma_context_init__jackP10ma_contextPK17ma_context_configP20ma_backend_callbacks.lto_priv.0
	.p2align 4
	.globl	_ZL38ma_job_process__device__aaudio_rerouteP6ma_job.lto_priv.0
	.hidden	_ZL38ma_job_process__device__aaudio_rerouteP6ma_job.lto_priv.0
	.type	_ZL38ma_job_process__device__aaudio_rerouteP6ma_job.lto_priv.0, @function
_ZL38ma_job_process__device__aaudio_rerouteP6ma_job.lto_priv.0:
.LVL765:
.LFB103:
	.loc 1 26102 1 view -0
	.cfi_startproc
	.loc 1 26102 1 is_stmt 0 view .LVU2594
	pushq	%rbp
	.cfi_def_cfa_offset 16
	.cfi_offset 6, -16
	movq	%rsp, %rbp
	.cfi_def_cfa_register 6
1:	call	mcount
	.loc 1 26102 1 view .LVU2595
	.loc 1 26103 5 is_stmt 1 view .LVU2596
.LVL766:
.LBB1666:
.LBI1666:
	.loc 1 5640 18 view .LVU2597
.LBB1667:
	.loc 1 5642 5 view .LVU2598
	testq	%rdi, %rdi
	je	.L674
	.loc 1 5645 5 view .LVU2599
	.loc 1 5647 5 view .LVU2600
.LVL767:
	.loc 1 5647 5 is_stmt 0 view .LVU2601
.LBE1667:
.LBE1666:
	.loc 1 26104 1 view .LVU2602
	xorl	%eax, %eax
	popq	%rbp
	.cfi_remember_state
	.cfi_def_cfa 7, 8
	ret
.LVL768:
.L674:
	.cfi_restore_state
.LBB1669:
.LBB1668:
	.loc 1 26104 1 view .LVU2603
	call	_ZL20ma_job_process__noopP6ma_job.part.0.lto_priv.0
.LVL769:
	.loc 1 26104 1 view .LVU2604
.LBE1668:
.LBE1669:
	.cfi_endproc
.LFE103:
	.size	_ZL38ma_job_process__device__aaudio_rerouteP6ma_job.lto_priv.0, .-_ZL38ma_job_process__device__aaudio_rerouteP6ma_job.lto_priv.0
	.section	.rodata.str1.1
.LC70:
	.string	"void* ma_worker_thread(void*)"
	.section	.rodata.str1.8
	.align 8
.LC71:
	.string	"ma_device_get_state(pDevice) == ma_device_state_starting"
	.text
	.p2align 4
	.type	_ZL16ma_worker_threadPv, @function
_ZL16ma_worker_threadPv:
.LVL770:
.LFB104:
	.loc 1 28274 1 is_stmt 1 view -0
	.cfi_startproc
	.loc 1 28274 1 is_stmt 0 view .LVU2606
	pushq	%rbp
	.cfi_def_cfa_offset 16
	.cfi_offset 6, -16
	movq	%rsp, %rbp
	.cfi_def_cfa_register 6
	pushq	%r15
	pushq	%r14
	pushq	%r13
	pushq	%r12
	pushq	%rbx
	subq	$56, %rsp
	.cfi_offset 15, -24
	.cfi_offset 14, -32
	.cfi_offset 13, -40
	.cfi_offset 12, -48
	.cfi_offset 3, -56
1:	call	mcount
	.loc 1 28274 1 view .LVU2607
	.loc 1 28275 5 is_stmt 1 view .LVU2608
.LVL771:
	.loc 1 28276 5 view .LVU2609
	.loc 1 28274 1 is_stmt 0 view .LVU2610
	movq	%rdi, %rbx
	.loc 1 28276 5 view .LVU2611
	testq	%rdi, %rdi
	je	.L716
	.loc 1 28288 5 is_stmt 1 view .LVU2612
.LVL772:
.LBB1726:
.LBI1726:
	.loc 1 7221 23 view .LVU2613
.LBB1727:
	.loc 1 7223 5 view .LVU2614
	leaq	16(%rdi), %r14
	movl	$1, %eax
	xchgl	(%r14), %eax
.LVL773:
	.loc 1 7223 5 is_stmt 0 view .LVU2615
.LBE1727:
.LBE1726:
	.loc 1 28289 5 is_stmt 1 view .LVU2616
.LBB1728:
.LBI1728:
	.loc 1 4915 18 view .LVU2617
.LBE1728:
	.loc 1 4917 5 view .LVU2618
	.loc 1 4926 5 view .LVU2619
.LBB1735:
.LBB1729:
.LBI1729:
	.loc 1 4606 18 view .LVU2620
.LBB1730:
	.loc 1 4608 5 view .LVU2621
	.loc 1 4608 42 is_stmt 0 view .LVU2622
	leaq	296(%rdi), %r15
.LBE1730:
.LBE1729:
.LBE1735:
.LBB1736:
.LBB1737:
.LBB1738:
.LBB1739:
.LBB1740:
	.loc 1 4594 42 view .LVU2623
	leaq	104(%rbx), %r12
.LBE1740:
.LBE1739:
.LBE1738:
.LBE1737:
.LBE1736:
.LBB1812:
.LBB1733:
.LBB1731:
	.loc 1 4608 23 view .LVU2624
	movq	%r15, %rdi
.LVL774:
	.loc 1 4608 42 view .LVU2625
	movq	%r15, -80(%rbp)
.LBE1731:
.LBE1733:
.LBE1812:
.LBB1813:
.LBB1803:
.LBB1745:
.LBB1743:
.LBB1741:
	.loc 1 4597 48 view .LVU2626
	leaq	144(%rbx), %r13
.LBE1741:
.LBE1743:
.LBE1745:
.LBE1803:
.LBE1813:
.LBB1814:
.LBB1734:
.LBB1732:
	.loc 1 4608 23 view .LVU2627
	call	pthread_mutex_lock
.LVL775:
	.loc 1 4609 5 is_stmt 1 view .LVU2628
	.loc 1 4610 9 view .LVU2629
	.loc 1 4611 46 is_stmt 0 view .LVU2630
	leaq	336(%rbx), %rax
	.loc 1 4610 23 view .LVU2631
	movl	$1, 288(%rbx)
	.loc 1 4611 9 is_stmt 1 view .LVU2632
	.loc 1 4611 28 is_stmt 0 view .LVU2633
	movq	%rax, %rdi
	.loc 1 4611 46 view .LVU2634
	movq	%rax, -88(%rbp)
	.loc 1 4611 28 view .LVU2635
	call	pthread_cond_signal
.LVL776:
	.loc 1 4613 5 is_stmt 1 view .LVU2636
	.loc 1 4613 25 is_stmt 0 view .LVU2637
	movq	%r15, %rdi
	call	pthread_mutex_unlock
.LVL777:
	.loc 1 4615 5 is_stmt 1 view .LVU2638
	.p2align 4,,10
	.p2align 3
.L677:
	.loc 1 4615 5 is_stmt 0 view .LVU2639
.LBE1732:
.LBE1734:
.LBE1814:
	.loc 1 28291 5 is_stmt 1 view .LVU2640
.LBB1815:
.LBB1804:
	.loc 1 28292 9 view .LVU2641
	.loc 1 28293 9 view .LVU2642
	.loc 1 28296 9 view .LVU2643
.LBB1746:
.LBI1738:
	.loc 1 4900 18 view .LVU2644
.LBE1746:
.LBE1804:
.LBE1815:
	.loc 1 4902 5 view .LVU2645
	.loc 1 4911 5 view .LVU2646
.LBB1816:
.LBB1805:
.LBB1747:
.LBB1744:
.LBI1739:
	.loc 1 4592 18 view .LVU2647
.LBB1742:
	.loc 1 4594 5 view .LVU2648
	.loc 1 4594 23 is_stmt 0 view .LVU2649
	movq	%r12, %rdi
	call	pthread_mutex_lock
.LVL778:
	.loc 1 4595 5 is_stmt 1 view .LVU2650
	.loc 1 4596 9 view .LVU2651
	.loc 1 4596 30 view .LVU2652
	movl	96(%rbx), %edx
	testl	%edx, %edx
	jne	.L681
	.p2align 4,,10
	.p2align 3
.L682:
	.loc 1 4597 13 view .LVU2653
	.loc 1 4597 30 is_stmt 0 view .LVU2654
	movq	%r12, %rsi
	movq	%r13, %rdi
	call	pthread_cond_wait
.LVL779:
	.loc 1 4595 5 is_stmt 1 view .LVU2655
	.loc 1 4596 9 view .LVU2656
	.loc 1 4596 30 view .LVU2657
	movl	96(%rbx), %eax
	testl	%eax, %eax
	je	.L682
.L681:
	.loc 1 4599 9 view .LVU2658
	.loc 1 4599 23 is_stmt 0 view .LVU2659
	movl	$0, 96(%rbx)
	.loc 1 4601 5 is_stmt 1 view .LVU2660
	.loc 1 4601 25 is_stmt 0 view .LVU2661
	movq	%r12, %rdi
	call	pthread_mutex_unlock
.LVL780:
	.loc 1 4603 5 is_stmt 1 view .LVU2662
	.loc 1 4603 5 is_stmt 0 view .LVU2663
.LBE1742:
.LBE1744:
.LBE1747:
	.loc 1 28299 9 is_stmt 1 view .LVU2664
	.loc 1 28299 29 is_stmt 0 view .LVU2665
	movl	$0, 392(%rbx)
	.loc 1 28302 9 is_stmt 1 view .LVU2666
.LVL781:
.LBB1748:
.LBI1748:
	.loc 1 29890 24 view .LVU2667
.LBE1748:
.LBE1805:
.LBE1816:
	.loc 1 29892 5 view .LVU2668
.LBB1817:
.LBB1806:
.LBB1751:
.LBB1749:
.LBI1749:
	.loc 1 29890 24 view .LVU2669
.LBB1750:
	.loc 1 29896 5 view .LVU2670
	.loc 1 29896 29 is_stmt 0 view .LVU2671
	movl	(%r14), %eax
.LVL782:
	.loc 1 29896 29 view .LVU2672
.LBE1750:
.LBE1749:
.LBE1751:
	.loc 1 28302 9 view .LVU2673
	testl	%eax, %eax
	je	.L717
	.loc 1 28311 9 is_stmt 1 view .LVU2674
.LVL783:
.LBB1752:
.LBI1752:
	.loc 1 29890 24 view .LVU2675
.LBE1752:
.LBE1806:
.LBE1817:
	.loc 1 29892 5 view .LVU2676
.LBB1818:
.LBB1807:
.LBB1755:
.LBB1753:
.LBI1753:
	.loc 1 29890 24 view .LVU2677
.LBB1754:
	.loc 1 29896 5 view .LVU2678
	.loc 1 29896 29 is_stmt 0 view .LVU2679
	movl	(%r14), %eax
.LVL784:
	.loc 1 29896 29 view .LVU2680
.LBE1754:
.LBE1753:
.LBE1755:
	.loc 1 28311 9 view .LVU2681
	cmpl	$3, %eax
	jne	.L718
	.loc 1 28314 9 is_stmt 1 view .LVU2682
	.loc 1 28314 42 is_stmt 0 view .LVU2683
	movq	(%rbx), %rax
.LBB1756:
.LBB1757:
.LBB1758:
	.loc 1 4611 46 view .LVU2684
	leaq	240(%rbx), %rdx
	.loc 1 4608 42 view .LVU2685
	leaq	200(%rbx), %r15
	.loc 1 4611 46 view .LVU2686
	movq	%rdx, -72(%rbp)
.LBE1758:
.LBE1757:
.LBE1756:
	.loc 1 28314 42 view .LVU2687
	movq	48(%rax), %rax
	.loc 1 28314 9 view .LVU2688
	testq	%rax, %rax
	je	.L684
	.loc 1 28315 13 is_stmt 1 view .LVU2689
	.loc 1 28315 69 is_stmt 0 view .LVU2690
	movq	%rbx, %rdi
	call	*%rax
.LVL785:
	.loc 1 28324 9 is_stmt 1 view .LVU2691
	testl	%eax, %eax
	jne	.L719
.LVL786:
.L684:
	.loc 1 28331 9 view .LVU2692
.LBB1761:
.LBI1761:
	.loc 1 7221 23 view .LVU2693
.LBB1762:
	.loc 1 7223 5 view .LVU2694
	movl	$2, %eax
	xchgl	(%r14), %eax
.LVL787:
	.loc 1 7223 5 is_stmt 0 view .LVU2695
.LBE1762:
.LBE1761:
	.loc 1 28332 9 is_stmt 1 view .LVU2696
.LBB1763:
.LBI1763:
	.loc 1 4915 18 view .LVU2697
.LBE1763:
.LBE1807:
.LBE1818:
	.loc 1 4917 5 view .LVU2698
	.loc 1 4926 5 view .LVU2699
.LBB1819:
.LBB1808:
.LBB1766:
.LBB1764:
.LBI1764:
	.loc 1 4606 18 view .LVU2700
.LBB1765:
	.loc 1 4608 5 view .LVU2701
	.loc 1 4608 23 is_stmt 0 view .LVU2702
	movq	%r15, %rdi
	call	pthread_mutex_lock
.LVL788:
	.loc 1 4609 5 is_stmt 1 view .LVU2703
	.loc 1 4610 9 view .LVU2704
	.loc 1 4611 28 is_stmt 0 view .LVU2705
	leaq	240(%rbx), %rdi
	.loc 1 4610 23 view .LVU2706
	movl	$1, 192(%rbx)
	.loc 1 4611 9 is_stmt 1 view .LVU2707
	.loc 1 4611 28 is_stmt 0 view .LVU2708
	call	pthread_cond_signal
.LVL789:
	.loc 1 4613 5 is_stmt 1 view .LVU2709
	.loc 1 4613 25 is_stmt 0 view .LVU2710
	movq	%r15, %rdi
	call	pthread_mutex_unlock
.LVL790:
	.loc 1 4615 5 is_stmt 1 view .LVU2711
	.loc 1 4615 5 is_stmt 0 view .LVU2712
.LBE1765:
.LBE1764:
.LBE1766:
	.loc 1 28334 9 is_stmt 1 view .LVU2713
.LBB1767:
.LBI1767:
	.loc 1 6750 6 view .LVU2714
.LBB1768:
	.loc 1 6752 5 view .LVU2715
.LBB1769:
.LBI1769:
	.loc 1 6725 31 view .LVU2716
.LBB1770:
	.loc 1 6727 5 view .LVU2717
	.loc 1 6729 5 view .LVU2718
.LBB1771:
.LBI1771:
	.loc 1 776 23 view .LVU2719
.LBB1772:
	.loc 1 781 5 view .LVU2720
	.loc 1 782 9 view .LVU2721
.LBE1772:
.LBE1771:
.LBE1770:
.LBE1769:
.LBB1776:
.LBB1777:
	.loc 1 6740 31 is_stmt 0 view .LVU2722
	movq	32(%rbx), %rax
.LBE1777:
.LBE1776:
.LBB1779:
.LBB1775:
	.loc 1 6730 26 view .LVU2723
	movq	%rbx, -64(%rbp)
.LBB1774:
.LBB1773:
	.loc 1 782 15 view .LVU2724
	movl	$0, -52(%rbp)
.LVL791:
	.loc 1 782 15 view .LVU2725
.LBE1773:
.LBE1774:
	.loc 1 6730 5 is_stmt 1 view .LVU2726
	.loc 1 6731 5 view .LVU2727
	.loc 1 6731 26 is_stmt 0 view .LVU2728
	movl	$0, -56(%rbp)
	.loc 1 6733 5 is_stmt 1 view .LVU2729
.LVL792:
	.loc 1 6733 5 is_stmt 0 view .LVU2730
.LBE1775:
.LBE1779:
.LBB1780:
.LBI1776:
	.loc 1 6736 13 is_stmt 1 view .LVU2731
.LBB1778:
	.loc 1 6738 5 view .LVU2732
	.loc 1 6740 5 view .LVU2733
	testq	%rax, %rax
	je	.L686
	.loc 1 6741 9 view .LVU2734
	.loc 1 6741 45 is_stmt 0 view .LVU2735
	leaq	-64(%rbp), %rdi
	call	*%rax
.LVL793:
.L686:
	.loc 1 6745 5 is_stmt 1 view .LVU2736
	.loc 1 6745 22 is_stmt 0 view .LVU2737
	movq	-64(%rbp), %rdi
	.loc 1 6745 31 view .LVU2738
	movq	40(%rdi), %rax
	.loc 1 6745 5 view .LVU2739
	testq	%rax, %rax
	je	.L687
	.loc 1 6745 46 view .LVU2740
	cmpl	$1, -56(%rbp)
	jne	.L687
	.loc 1 6746 9 is_stmt 1 view .LVU2741
	.loc 1 6746 37 is_stmt 0 view .LVU2742
	call	*%rax
.LVL794:
.L687:
	.loc 1 6746 37 view .LVU2743
.LBE1778:
.LBE1780:
.LBE1768:
.LBE1767:
	.loc 1 28336 9 is_stmt 1 view .LVU2744
	.loc 1 28336 42 is_stmt 0 view .LVU2745
	movq	(%rbx), %rax
	.loc 1 28337 58 view .LVU2746
	movq	%rbx, %rdi
	.loc 1 28336 42 view .LVU2747
	movq	80(%rax), %rax
	.loc 1 28336 9 view .LVU2748
	testq	%rax, %rax
	je	.L688
	.loc 1 28337 13 is_stmt 1 view .LVU2749
	.loc 1 28337 58 is_stmt 0 view .LVU2750
	call	*%rax
.LVL795:
.L689:
	.loc 1 28344 9 is_stmt 1 view .LVU2751
	.loc 1 28344 42 is_stmt 0 view .LVU2752
	movq	(%rbx), %rax
	movq	56(%rax), %rax
	.loc 1 28344 9 view .LVU2753
	testq	%rax, %rax
	je	.L693
	.loc 1 28345 13 is_stmt 1 view .LVU2754
	.loc 1 28345 67 is_stmt 0 view .LVU2755
	movq	%rbx, %rdi
	call	*%rax
.LVL796:
	.loc 1 28355 9 is_stmt 1 view .LVU2756
	testl	%eax, %eax
	jne	.L694
.LVL797:
.L693:
	.loc 1 28356 13 view .LVU2757
.LBB1781:
.LBI1781:
	.loc 1 6755 6 view .LVU2758
.LBB1782:
	.loc 1 6757 5 view .LVU2759
.LBB1783:
.LBI1783:
	.loc 1 6725 31 view .LVU2760
.LBB1784:
	.loc 1 6727 5 view .LVU2761
	.loc 1 6729 5 view .LVU2762
.LBB1785:
.LBI1785:
	.loc 1 776 23 view .LVU2763
.LBB1786:
	.loc 1 781 5 view .LVU2764
	.loc 1 782 9 view .LVU2765
.LBE1786:
.LBE1785:
.LBE1784:
.LBE1783:
.LBB1790:
.LBB1791:
	.loc 1 6740 31 is_stmt 0 view .LVU2766
	movq	32(%rbx), %rax
.LBE1791:
.LBE1790:
.LBB1793:
.LBB1789:
.LBB1788:
.LBB1787:
	.loc 1 782 15 view .LVU2767
	movl	$0, -52(%rbp)
.LVL798:
	.loc 1 782 15 view .LVU2768
.LBE1787:
.LBE1788:
	.loc 1 6730 5 is_stmt 1 view .LVU2769
	.loc 1 6730 26 is_stmt 0 view .LVU2770
	movq	%rbx, -64(%rbp)
	.loc 1 6731 5 is_stmt 1 view .LVU2771
	.loc 1 6731 26 is_stmt 0 view .LVU2772
	movl	$1, -56(%rbp)
	.loc 1 6733 5 is_stmt 1 view .LVU2773
.LVL799:
	.loc 1 6733 5 is_stmt 0 view .LVU2774
.LBE1789:
.LBE1793:
.LBB1794:
.LBI1790:
	.loc 1 6736 13 is_stmt 1 view .LVU2775
.LBB1792:
	.loc 1 6738 5 view .LVU2776
	.loc 1 6740 5 view .LVU2777
	testq	%rax, %rax
	je	.L692
	.loc 1 6741 9 view .LVU2778
	.loc 1 6741 45 is_stmt 0 view .LVU2779
	leaq	-64(%rbp), %rdi
	call	*%rax
.LVL800:
.L692:
	.loc 1 6745 5 is_stmt 1 view .LVU2780
	.loc 1 6745 22 is_stmt 0 view .LVU2781
	movq	-64(%rbp), %rdi
	.loc 1 6745 31 view .LVU2782
	movq	40(%rdi), %rax
	.loc 1 6745 5 view .LVU2783
	testq	%rax, %rax
	je	.L694
	.loc 1 6745 46 view .LVU2784
	cmpl	$1, -56(%rbp)
	jne	.L694
	.loc 1 6746 9 is_stmt 1 view .LVU2785
	.loc 1 6746 37 is_stmt 0 view .LVU2786
	call	*%rax
.LVL801:
	.p2align 4,,10
	.p2align 3
.L694:
	.loc 1 6746 37 view .LVU2787
.LBE1792:
.LBE1794:
.LBE1782:
.LBE1781:
	.loc 1 28360 9 is_stmt 1 view .LVU2788
.LBB1795:
.LBI1795:
	.loc 1 7221 23 view .LVU2789
.LBB1796:
	.loc 1 7223 5 view .LVU2790
	movl	$1, %eax
	xchgl	(%r14), %eax
.LVL802:
	.loc 1 7223 5 is_stmt 0 view .LVU2791
.LBE1796:
.LBE1795:
	.loc 1 28361 9 is_stmt 1 view .LVU2792
.LBB1797:
.LBI1797:
	.loc 1 4915 18 view .LVU2793
.LBE1797:
.LBE1808:
.LBE1819:
	.loc 1 4917 5 view .LVU2794
	.loc 1 4926 5 view .LVU2795
.LBB1820:
.LBB1809:
.LBB1800:
.LBB1798:
.LBI1798:
	.loc 1 4606 18 view .LVU2796
.LBB1799:
	.loc 1 4608 5 view .LVU2797
	.loc 1 4608 23 is_stmt 0 view .LVU2798
	movq	-80(%rbp), %r15
	movq	%r15, %rdi
	call	pthread_mutex_lock
.LVL803:
	.loc 1 4609 5 is_stmt 1 view .LVU2799
	.loc 1 4610 9 view .LVU2800
	.loc 1 4611 28 is_stmt 0 view .LVU2801
	movq	-88(%rbp), %rdi
	.loc 1 4610 23 view .LVU2802
	movl	$1, 288(%rbx)
	.loc 1 4611 9 is_stmt 1 view .LVU2803
	.loc 1 4611 28 is_stmt 0 view .LVU2804
	call	pthread_cond_signal
.LVL804:
	.loc 1 4613 5 is_stmt 1 view .LVU2805
	.loc 1 4613 25 is_stmt 0 view .LVU2806
	movq	%r15, %rdi
	call	pthread_mutex_unlock
.LVL805:
	.loc 1 4615 5 is_stmt 1 view .LVU2807
	.loc 1 4615 12 is_stmt 0 view .LVU2808
	jmp	.L677
.LVL806:
	.p2align 4,,10
	.p2align 3
.L719:
	.loc 1 4615 12 view .LVU2809
.LBE1799:
.LBE1798:
.LBE1800:
	.loc 1 28325 13 is_stmt 1 discriminator 1 view .LVU2810
	.loc 1 28325 33 is_stmt 0 discriminator 1 view .LVU2811
	movl	%eax, 392(%rbx)
	.loc 1 28326 13 is_stmt 1 discriminator 1 view .LVU2812
.LVL807:
.LBB1801:
.LBI1756:
	.loc 1 4915 18 discriminator 1 view .LVU2813
.LBE1801:
.LBE1809:
.LBE1820:
	.loc 1 4917 5 discriminator 1 view .LVU2814
	.loc 1 4926 5 discriminator 1 view .LVU2815
.LBB1821:
.LBB1810:
.LBB1802:
.LBB1760:
.LBI1757:
	.loc 1 4606 18 discriminator 1 view .LVU2816
.LBB1759:
	.loc 1 4608 5 discriminator 1 view .LVU2817
	.loc 1 4608 23 is_stmt 0 discriminator 1 view .LVU2818
	movq	%r15, %rdi
	call	pthread_mutex_lock
.LVL808:
	.loc 1 4609 5 is_stmt 1 discriminator 1 view .LVU2819
	.loc 1 4610 9 discriminator 1 view .LVU2820
	.loc 1 4611 28 is_stmt 0 discriminator 1 view .LVU2821
	leaq	240(%rbx), %rdi
	.loc 1 4610 23 discriminator 1 view .LVU2822
	movl	$1, 192(%rbx)
	.loc 1 4611 9 is_stmt 1 discriminator 1 view .LVU2823
	.loc 1 4611 28 is_stmt 0 discriminator 1 view .LVU2824
	call	pthread_cond_signal
.LVL809:
	.loc 1 4613 5 is_stmt 1 discriminator 1 view .LVU2825
	.loc 1 4613 25 is_stmt 0 discriminator 1 view .LVU2826
	movq	%r15, %rdi
	call	pthread_mutex_unlock
.LVL810:
	.loc 1 4615 5 is_stmt 1 discriminator 1 view .LVU2827
	.loc 1 4615 5 is_stmt 0 discriminator 1 view .LVU2828
.LBE1759:
.LBE1760:
.LBE1802:
	.loc 1 28327 13 is_stmt 1 discriminator 1 view .LVU2829
	jmp	.L677
	.p2align 4,,10
	.p2align 3
.L688:
	.loc 1 28340 13 view .LVU2830
	.loc 1 28340 55 is_stmt 0 view .LVU2831
	call	_ZL42ma_device_audio_thread__default_read_writeP9ma_device.isra.0
.LVL811:
	jmp	.L689
.L717:
	.loc 1 28340 55 view .LVU2832
.LBE1810:
.LBE1821:
	.loc 1 28368 5 is_stmt 1 view .LVU2833
	.loc 1 28369 1 is_stmt 0 view .LVU2834
	addq	$56, %rsp
	xorl	%eax, %eax
	popq	%rbx
.LVL812:
	.loc 1 28369 1 view .LVU2835
	popq	%r12
	popq	%r13
.LVL813:
	.loc 1 28369 1 view .LVU2836
	popq	%r14
.LVL814:
	.loc 1 28369 1 view .LVU2837
	popq	%r15
	popq	%rbp
	.cfi_remember_state
	.cfi_def_cfa 7, 8
	ret
.LVL815:
.L716:
	.cfi_restore_state
	.loc 1 28276 5 discriminator 1 view .LVU2838
	movl	$.LC70, %ecx
	movl	$28276, %edx
	movl	$.LC8, %esi
	movl	$.LC19, %edi
	call	__assert_fail
.LVL816:
	.p2align 4,,10
	.p2align 3
.L718:
.LBB1822:
.LBB1811:
	.loc 1 28311 9 discriminator 1 view .LVU2839
	movl	$.LC70, %ecx
	movl	$28311, %edx
	movl	$.LC8, %esi
	movl	$.LC71, %edi
	call	__assert_fail
.LVL817:
.LBE1811:
.LBE1822:
	.cfi_endproc
.LFE104:
	.size	_ZL16ma_worker_threadPv, .-_ZL16ma_worker_threadPv
	.p2align 4
	.type	ma_context_get_device_info, @function
ma_context_get_device_info:
.LVL818:
.LFB109:
	.loc 1 29065 1 is_stmt 1 view -0
	.cfi_startproc
	.loc 1 29065 1 is_stmt 0 view .LVU2841
	pushq	%rbp
	.cfi_def_cfa_offset 16
	.cfi_offset 6, -16
	movq	%rsp, %rbp
	.cfi_def_cfa_register 6
	pushq	%r15
	pushq	%r14
	pushq	%r13
	pushq	%r12
	pushq	%rbx
	subq	$1576, %rsp
	.cfi_offset 15, -24
	.cfi_offset 14, -32
	.cfi_offset 13, -40
	.cfi_offset 12, -48
	.cfi_offset 3, -56
1:	call	mcount
	.loc 1 29065 1 view .LVU2842
	.loc 1 29066 5 is_stmt 1 view .LVU2843
	.loc 1 29067 5 view .LVU2844
	.loc 1 29070 5 view .LVU2845
	.loc 1 29065 1 is_stmt 0 view .LVU2846
	movq	%rdi, %rbx
	movq	%rdx, %r12
	movq	%rcx, %r14
	.loc 1 29070 5 view .LVU2847
	testq	%rdi, %rdi
	je	.L723
	.loc 1 29074 5 is_stmt 1 view .LVU2848
.LVL819:
.LBB1823:
.LBI1823:
	.loc 1 776 23 view .LVU2849
.LBB1824:
	.loc 1 781 5 view .LVU2850
	.loc 1 782 9 view .LVU2851
	.loc 1 782 15 is_stmt 0 view .LVU2852
	leaq	-1600(%rbp), %r13
.LVL820:
	.loc 1 782 15 view .LVU2853
	movl	$193, %ecx
.LVL821:
	.loc 1 782 15 view .LVU2854
	xorl	%eax, %eax
	movq	%r13, %rdi
.LVL822:
	.loc 1 782 15 view .LVU2855
	rep stosq
.LVL823:
	.loc 1 782 15 view .LVU2856
.LBE1824:
.LBE1823:
	.loc 1 29077 5 is_stmt 1 view .LVU2857
	testq	%rdx, %rdx
	je	.L722
	.loc 1 29078 9 view .LVU2858
	movdqu	(%rdx), %xmm0
	movdqu	16(%rdx), %xmm1
	movdqu	32(%rdx), %xmm2
	movdqu	48(%rdx), %xmm3
	movdqu	64(%rdx), %xmm4
	movdqu	80(%rdx), %xmm5
	movups	%xmm0, -1600(%rbp)
	movdqu	96(%rdx), %xmm6
	movdqu	112(%rdx), %xmm7
	movups	%xmm1, -1584(%rbp)
	movdqu	128(%rdx), %xmm0
	movdqu	144(%rdx), %xmm1
	movups	%xmm2, -1568(%rbp)
	movups	%xmm3, -1552(%rbp)
	movdqu	160(%rdx), %xmm2
	movdqu	176(%rdx), %xmm3
	movups	%xmm4, -1536(%rbp)
	movdqu	192(%rdx), %xmm4
	movups	%xmm5, -1520(%rbp)
	movdqu	208(%rdx), %xmm5
	movups	%xmm6, -1504(%rbp)
	movdqu	224(%rdx), %xmm6
	movups	%xmm7, -1488(%rbp)
	movdqu	240(%rdx), %xmm7
	movups	%xmm0, -1472(%rbp)
	movups	%xmm1, -1456(%rbp)
	movups	%xmm2, -1440(%rbp)
	movups	%xmm3, -1424(%rbp)
	movups	%xmm4, -1408(%rbp)
	movups	%xmm5, -1392(%rbp)
	movups	%xmm6, -1376(%rbp)
	movups	%xmm7, -1360(%rbp)
.L722:
	.loc 1 29081 5 is_stmt 0 view .LVU2859
	cmpq	$0, 24(%rbx)
	movl	%esi, -1604(%rbp)
	.loc 1 29081 5 is_stmt 1 view .LVU2860
	je	.L724
	.loc 1 29085 5 view .LVU2861
	.loc 1 29085 18 is_stmt 0 view .LVU2862
	leaq	360(%rbx), %r15
.LVL824:
.LBB1825:
.LBI1825:
	.loc 1 4800 13 is_stmt 1 view .LVU2863
.LBE1825:
	.loc 1 4802 5 view .LVU2864
	.loc 1 4811 5 view .LVU2865
.LBB1828:
.LBB1826:
.LBI1826:
	.loc 1 4556 13 view .LVU2866
.LBB1827:
	.loc 1 4558 5 view .LVU2867
	.loc 1 4558 23 is_stmt 0 view .LVU2868
	movq	%r15, %rdi
	call	pthread_mutex_lock
.LVL825:
	.loc 1 4558 23 view .LVU2869
.LBE1827:
.LBE1826:
.LBE1828:
	.loc 1 29086 5 is_stmt 1 view .LVU2870
	.loc 1 29087 9 view .LVU2871
	.loc 1 29087 60 is_stmt 0 view .LVU2872
	movq	%r13, %rcx
	movq	%r12, %rdx
	movq	%rbx, %rdi
	movl	-1604(%rbp), %esi
	call	*24(%rbx)
.LVL826:
.LBB1829:
.LBB1830:
.LBB1831:
	.loc 1 4563 25 view .LVU2873
	movq	%r15, %rdi
.LBE1831:
.LBE1830:
.LBE1829:
	.loc 1 29087 60 view .LVU2874
	movl	%eax, %r12d
.LVL827:
	.loc 1 29089 5 is_stmt 1 view .LVU2875
.LBB1834:
.LBI1829:
	.loc 1 4815 13 view .LVU2876
.LBE1834:
	.loc 1 4817 5 view .LVU2877
	.loc 1 4826 5 view .LVU2878
.LBB1835:
.LBB1833:
.LBI1830:
	.loc 1 4561 13 view .LVU2879
.LBB1832:
	.loc 1 4563 5 view .LVU2880
	.loc 1 4563 25 is_stmt 0 view .LVU2881
	call	pthread_mutex_unlock
.LVL828:
	.loc 1 4563 25 view .LVU2882
.LBE1832:
.LBE1833:
.LBE1835:
	.loc 1 29091 5 is_stmt 1 view .LVU2883
	.loc 1 29091 18 is_stmt 0 view .LVU2884
	movl	$193, %ecx
	movq	%r14, %rdi
	movq	%r13, %rsi
	rep movsq
	.loc 1 29092 5 is_stmt 1 view .LVU2885
.LVL829:
.L720:
	.loc 1 29093 1 is_stmt 0 view .LVU2886
	addq	$1576, %rsp
	movl	%r12d, %eax
	popq	%rbx
.LVL830:
	.loc 1 29093 1 view .LVU2887
	popq	%r12
	popq	%r13
	popq	%r14
.LVL831:
	.loc 1 29093 1 view .LVU2888
	popq	%r15
	popq	%rbp
	.cfi_remember_state
	.cfi_def_cfa 7, 8
	ret
.LVL832:
	.p2align 4,,10
	.p2align 3
.L723:
	.cfi_restore_state
	.loc 1 29071 16 view .LVU2889
	movl	$-2, %r12d
	jmp	.L720
.LVL833:
.L724:
	.loc 1 29082 16 view .LVU2890
	movl	$-3, %r12d
	jmp	.L720
	.cfi_endproc
.LFE109:
	.size	ma_context_get_device_info, .-ma_context_get_device_info
	.section	.rodata.str1.8
	.align 8
.LC72:
	.string	"void ma_linear_resampler_interpolate_frame_s16(ma_linear_resampler*, ma_int16*)"
	.section	.rodata.str1.1
.LC73:
	.string	"pFrameOut != __null"
	.section	.rodata.str1.8
	.align 8
.LC74:
	.string	"ma_int16 ma_linear_resampler_mix_s16(ma_int16, ma_int16, ma_int32, ma_int32)"
	.section	.rodata.str1.1
.LC75:
	.string	"a <= (1<<shift)"
	.text
	.p2align 4
	.type	_ZL41ma_linear_resampler_interpolate_frame_s16P19ma_linear_resamplerPs, @function
_ZL41ma_linear_resampler_interpolate_frame_s16P19ma_linear_resamplerPs:
.LVL834:
.LFB110:
	.loc 1 38687 1 is_stmt 1 view -0
	.cfi_startproc
	.loc 1 38687 1 is_stmt 0 view .LVU2892
	pushq	%rbp
	.cfi_def_cfa_offset 16
	.cfi_offset 6, -16
	movq	%rsp, %rbp
	.cfi_def_cfa_register 6
	pushq	%rbx
	subq	$8, %rsp
	.cfi_offset 3, -24
1:	call	mcount
	.loc 1 38687 1 view .LVU2893
	.loc 1 38688 5 is_stmt 1 view .LVU2894
	.loc 1 38689 5 view .LVU2895
	.loc 1 38690 5 view .LVU2896
	.loc 1 38690 21 is_stmt 0 view .LVU2897
	movl	4(%rdi), %r9d
.LVL835:
	.loc 1 38691 5 is_stmt 1 view .LVU2898
	.loc 1 38693 5 view .LVU2899
	.loc 1 38694 5 view .LVU2900
	.loc 1 38687 1 is_stmt 0 view .LVU2901
	movq	%rdi, %rcx
	.loc 1 38694 5 view .LVU2902
	testq	%rsi, %rsi
	je	.L736
	.loc 1 38696 5 is_stmt 1 view .LVU2903
.LVL836:
	.loc 1 38698 5 view .LVU2904
	.loc 1 38698 5 view .LVU2905
.LBB1846:
	.loc 1 38699 19 view .LVU2906
.LBE1846:
	.loc 1 38696 33 is_stmt 0 view .LVU2907
	movl	44(%rdi), %eax
	.loc 1 38696 7 view .LVU2908
	xorl	%edx, %edx
.LBB1910:
.LBB1847:
	.loc 1 38700 65 view .LVU2909
	movq	48(%rcx), %rcx
.LBE1847:
.LBE1910:
	.loc 1 38696 33 view .LVU2910
	sall	$12, %eax
	.loc 1 38696 7 view .LVU2911
	divl	12(%rdi)
.LBB1911:
.LBB1900:
	.loc 1 38700 88 view .LVU2912
	movq	56(%rdi), %rdi
.LVL837:
	.loc 1 38700 88 view .LVU2913
	cmpl	$4096, %eax
	jg	.L737
	leal	-1(%r9), %edx
	cmpl	$6, %edx
	jbe	.L734
	movl	$4096, %r10d
	movd	%eax, %xmm5
	movl	%r9d, %r8d
	.loc 1 38700 65 view .LVU2914
	xorl	%edx, %edx
	subl	%eax, %r10d
	pshufd	$0, %xmm5, %xmm3
	shrl	$3, %r8d
	.loc 1 38700 49 view .LVU2915
	pxor	%xmm5, %xmm5
.LBB1848:
.LBB1849:
	.loc 1 38679 25 view .LVU2916
	movd	%r10d, %xmm2
	movdqa	%xmm3, %xmm6
	salq	$4, %r8
	pshufd	$0, %xmm2, %xmm2
	psrlq	$32, %xmm6
	.loc 1 38679 7 view .LVU2917
	movdqa	%xmm2, %xmm4
	psrlq	$32, %xmm4
.LVL838:
	.p2align 4,,10
	.p2align 3
.L732:
	.loc 1 38679 7 view .LVU2918
.LBE1849:
.LBE1848:
	.loc 1 38700 9 is_stmt 1 discriminator 2 view .LVU2919
	.loc 1 38700 70 is_stmt 0 discriminator 2 view .LVU2920
	movdqu	(%rcx,%rdx), %xmm1
	.loc 1 38700 49 discriminator 2 view .LVU2921
	movdqa	%xmm5, %xmm10
	.loc 1 38700 93 discriminator 2 view .LVU2922
	movdqu	(%rdi,%rdx), %xmm0
.LVL839:
.LBB1875:
.LBI1848:
	.loc 1 38671 27 is_stmt 1 discriminator 2 view .LVU2923
.LBB1850:
	.loc 1 38673 5 discriminator 2 view .LVU2924
	.loc 1 38674 5 discriminator 2 view .LVU2925
	.loc 1 38675 5 discriminator 2 view .LVU2926
	.loc 1 38677 5 discriminator 2 view .LVU2927
	.loc 1 38679 5 discriminator 2 view .LVU2928
	.loc 1 38680 5 discriminator 2 view .LVU2929
	.loc 1 38681 5 discriminator 2 view .LVU2930
	.loc 1 38683 5 discriminator 2 view .LVU2931
	.loc 1 38683 5 is_stmt 0 discriminator 2 view .LVU2932
.LBE1850:
.LBE1875:
	.loc 1 38701 9 is_stmt 1 discriminator 2 view .LVU2933
	.loc 1 38700 49 is_stmt 0 discriminator 2 view .LVU2934
	movdqa	%xmm5, %xmm9
	pcmpgtw	%xmm1, %xmm10
	pcmpgtw	%xmm0, %xmm9
	movdqa	%xmm1, %xmm8
	punpcklwd	%xmm10, %xmm8
	punpckhwd	%xmm10, %xmm1
.LBB1876:
.LBB1851:
	.loc 1 38679 7 discriminator 2 view .LVU2935
	movdqa	%xmm8, %xmm7
	psrlq	$32, %xmm8
	pmuludq	%xmm2, %xmm7
	pmuludq	%xmm4, %xmm8
	pshufd	$8, %xmm7, %xmm7
	pshufd	$8, %xmm8, %xmm8
	punpckldq	%xmm8, %xmm7
.LBE1851:
.LBE1876:
	.loc 1 38700 49 discriminator 2 view .LVU2936
	movdqa	%xmm0, %xmm8
	punpckhwd	%xmm9, %xmm0
	punpcklwd	%xmm9, %xmm8
.LBB1877:
.LBB1852:
	.loc 1 38680 7 discriminator 2 view .LVU2937
	movdqa	%xmm8, %xmm11
	psrlq	$32, %xmm8
	pmuludq	%xmm3, %xmm11
	pmuludq	%xmm6, %xmm8
	pshufd	$8, %xmm11, %xmm11
	pshufd	$8, %xmm8, %xmm8
	punpckldq	%xmm8, %xmm11
	.loc 1 38679 7 discriminator 2 view .LVU2938
	movdqa	%xmm1, %xmm8
	psrlq	$32, %xmm1
	pmuludq	%xmm2, %xmm8
	.loc 1 38681 7 discriminator 2 view .LVU2939
	paddd	%xmm11, %xmm7
	.loc 1 38679 7 discriminator 2 view .LVU2940
	pmuludq	%xmm4, %xmm1
	.loc 1 38683 25 discriminator 2 view .LVU2941
	psrad	$12, %xmm7
	.loc 1 38679 7 discriminator 2 view .LVU2942
	pshufd	$8, %xmm8, %xmm8
	pshufd	$8, %xmm1, %xmm1
	punpckldq	%xmm1, %xmm8
	.loc 1 38680 7 discriminator 2 view .LVU2943
	movdqa	%xmm0, %xmm1
	psrlq	$32, %xmm0
	pmuludq	%xmm3, %xmm1
	pmuludq	%xmm6, %xmm0
	pshufd	$8, %xmm1, %xmm1
	pshufd	$8, %xmm0, %xmm0
	punpckldq	%xmm0, %xmm1
	.loc 1 38683 33 discriminator 2 view .LVU2944
	movdqa	%xmm7, %xmm0
	.loc 1 38681 7 discriminator 2 view .LVU2945
	paddd	%xmm8, %xmm1
	.loc 1 38683 33 discriminator 2 view .LVU2946
	movdqa	%xmm7, %xmm8
	.loc 1 38683 25 discriminator 2 view .LVU2947
	psrad	$12, %xmm1
	.loc 1 38683 33 discriminator 2 view .LVU2948
	punpcklwd	%xmm1, %xmm0
	punpckhwd	%xmm1, %xmm8
	movdqa	%xmm0, %xmm1
	punpcklwd	%xmm8, %xmm0
	punpckhwd	%xmm8, %xmm1
	punpcklwd	%xmm1, %xmm0
.LBE1852:
.LBE1877:
	.loc 1 38701 22 discriminator 2 view .LVU2949
	movups	%xmm0, (%rsi,%rdx)
	.loc 1 38701 22 discriminator 2 view .LVU2950
.LBE1900:
	.loc 1 38699 5 is_stmt 1 discriminator 2 view .LVU2951
	.loc 1 38699 19 discriminator 2 view .LVU2952
	addq	$16, %rdx
	cmpq	%r8, %rdx
	jne	.L732
	movl	%r9d, %edx
	andl	$-8, %edx
	testb	$7, %r9b
	je	.L728
.L731:
.LVL840:
.LBB1901:
	.loc 1 38700 9 view .LVU2953
	.loc 1 38700 92 is_stmt 0 view .LVU2954
	movl	%edx, %ebx
.LVL841:
.LBB1878:
	.loc 1 38671 27 is_stmt 1 view .LVU2955
.LBB1853:
	.loc 1 38673 5 view .LVU2956
	.loc 1 38674 5 view .LVU2957
	.loc 1 38675 5 view .LVU2958
	.loc 1 38677 5 view .LVU2959
	.loc 1 38679 5 view .LVU2960
	.loc 1 38679 25 is_stmt 0 view .LVU2961
	movl	$4096, %r8d
.LBE1853:
.LBE1878:
	.loc 1 38700 49 view .LVU2962
	movswl	(%rcx,%rbx,2), %r10d
.LBB1879:
.LBB1854:
	.loc 1 38679 25 view .LVU2963
	subl	%eax, %r8d
	.loc 1 38680 5 is_stmt 1 view .LVU2964
	.loc 1 38681 5 view .LVU2965
	.loc 1 38683 5 view .LVU2966
.LVL842:
	.loc 1 38683 5 is_stmt 0 view .LVU2967
.LBE1854:
.LBE1879:
	.loc 1 38701 9 is_stmt 1 view .LVU2968
.LBB1880:
.LBB1855:
	.loc 1 38679 7 is_stmt 0 view .LVU2969
	movl	%r10d, %r11d
.LBE1855:
.LBE1880:
	.loc 1 38700 49 view .LVU2970
	movswl	(%rdi,%rbx,2), %r10d
.LBB1881:
.LBB1856:
	.loc 1 38679 7 view .LVU2971
	imull	%r8d, %r11d
	.loc 1 38680 7 view .LVU2972
	imull	%eax, %r10d
	.loc 1 38681 7 view .LVU2973
	addl	%r11d, %r10d
	.loc 1 38683 25 view .LVU2974
	sarl	$12, %r10d
	.loc 1 38683 33 view .LVU2975
	movw	%r10w, (%rsi,%rbx,2)
.LBE1856:
.LBE1881:
.LBE1901:
	.loc 1 38699 5 is_stmt 1 view .LVU2976
	.loc 1 38699 33 is_stmt 0 view .LVU2977
	leal	1(%rdx), %ebx
.LVL843:
	.loc 1 38699 19 is_stmt 1 view .LVU2978
	cmpl	%ebx, %r9d
	jbe	.L728
.LBB1902:
	.loc 1 38700 9 view .LVU2979
.LVL844:
.LBB1882:
	.loc 1 38671 27 view .LVU2980
.LBB1857:
	.loc 1 38673 5 view .LVU2981
	.loc 1 38674 5 view .LVU2982
	.loc 1 38675 5 view .LVU2983
	.loc 1 38677 5 view .LVU2984
	.loc 1 38679 5 view .LVU2985
	.loc 1 38680 5 view .LVU2986
	.loc 1 38681 5 view .LVU2987
	.loc 1 38683 5 view .LVU2988
	.loc 1 38683 5 is_stmt 0 view .LVU2989
.LBE1857:
.LBE1882:
	.loc 1 38701 9 is_stmt 1 view .LVU2990
	.loc 1 38700 49 is_stmt 0 view .LVU2991
	movswl	(%rcx,%rbx,2), %r10d
.LBB1883:
.LBB1858:
	.loc 1 38679 7 view .LVU2992
	movl	%r10d, %r11d
.LBE1858:
.LBE1883:
	.loc 1 38700 49 view .LVU2993
	movswl	(%rdi,%rbx,2), %r10d
.LBB1884:
.LBB1859:
	.loc 1 38679 7 view .LVU2994
	imull	%r8d, %r11d
	.loc 1 38680 7 view .LVU2995
	imull	%eax, %r10d
	.loc 1 38681 7 view .LVU2996
	addl	%r11d, %r10d
	.loc 1 38683 25 view .LVU2997
	sarl	$12, %r10d
	.loc 1 38683 33 view .LVU2998
	movw	%r10w, (%rsi,%rbx,2)
.LBE1859:
.LBE1884:
.LBE1902:
	.loc 1 38699 5 is_stmt 1 view .LVU2999
	.loc 1 38699 33 is_stmt 0 view .LVU3000
	leal	2(%rdx), %ebx
.LVL845:
	.loc 1 38699 19 is_stmt 1 view .LVU3001
	cmpl	%ebx, %r9d
	jbe	.L728
.LBB1903:
	.loc 1 38700 9 view .LVU3002
.LVL846:
.LBB1885:
	.loc 1 38671 27 view .LVU3003
.LBB1860:
	.loc 1 38673 5 view .LVU3004
	.loc 1 38674 5 view .LVU3005
	.loc 1 38675 5 view .LVU3006
	.loc 1 38677 5 view .LVU3007
	.loc 1 38679 5 view .LVU3008
	.loc 1 38680 5 view .LVU3009
	.loc 1 38681 5 view .LVU3010
	.loc 1 38683 5 view .LVU3011
	.loc 1 38683 5 is_stmt 0 view .LVU3012
.LBE1860:
.LBE1885:
	.loc 1 38701 9 is_stmt 1 view .LVU3013
	.loc 1 38700 49 is_stmt 0 view .LVU3014
	movswl	(%rcx,%rbx,2), %r10d
.LBB1886:
.LBB1861:
	.loc 1 38679 7 view .LVU3015
	movl	%r10d, %r11d
.LBE1861:
.LBE1886:
	.loc 1 38700 49 view .LVU3016
	movswl	(%rdi,%rbx,2), %r10d
.LBB1887:
.LBB1862:
	.loc 1 38679 7 view .LVU3017
	imull	%r8d, %r11d
	.loc 1 38680 7 view .LVU3018
	imull	%eax, %r10d
	.loc 1 38681 7 view .LVU3019
	addl	%r11d, %r10d
	.loc 1 38683 25 view .LVU3020
	sarl	$12, %r10d
	.loc 1 38683 33 view .LVU3021
	movw	%r10w, (%rsi,%rbx,2)
.LBE1862:
.LBE1887:
.LBE1903:
	.loc 1 38699 5 is_stmt 1 view .LVU3022
	.loc 1 38699 33 is_stmt 0 view .LVU3023
	leal	3(%rdx), %ebx
.LVL847:
	.loc 1 38699 19 is_stmt 1 view .LVU3024
	cmpl	%ebx, %r9d
	jbe	.L728
.LBB1904:
	.loc 1 38700 9 view .LVU3025
.LVL848:
.LBB1888:
	.loc 1 38671 27 view .LVU3026
.LBB1863:
	.loc 1 38673 5 view .LVU3027
	.loc 1 38674 5 view .LVU3028
	.loc 1 38675 5 view .LVU3029
	.loc 1 38677 5 view .LVU3030
	.loc 1 38679 5 view .LVU3031
	.loc 1 38680 5 view .LVU3032
	.loc 1 38681 5 view .LVU3033
	.loc 1 38683 5 view .LVU3034
	.loc 1 38683 5 is_stmt 0 view .LVU3035
.LBE1863:
.LBE1888:
	.loc 1 38701 9 is_stmt 1 view .LVU3036
	.loc 1 38700 49 is_stmt 0 view .LVU3037
	movswl	(%rcx,%rbx,2), %r10d
.LBB1889:
.LBB1864:
	.loc 1 38679 7 view .LVU3038
	movl	%r10d, %r11d
.LBE1864:
.LBE1889:
	.loc 1 38700 49 view .LVU3039
	movswl	(%rdi,%rbx,2), %r10d
.LBB1890:
.LBB1865:
	.loc 1 38679 7 view .LVU3040
	imull	%r8d, %r11d
	.loc 1 38680 7 view .LVU3041
	imull	%eax, %r10d
	.loc 1 38681 7 view .LVU3042
	addl	%r11d, %r10d
	.loc 1 38683 25 view .LVU3043
	sarl	$12, %r10d
	.loc 1 38683 33 view .LVU3044
	movw	%r10w, (%rsi,%rbx,2)
.LBE1865:
.LBE1890:
.LBE1904:
	.loc 1 38699 5 is_stmt 1 view .LVU3045
	.loc 1 38699 33 is_stmt 0 view .LVU3046
	leal	4(%rdx), %ebx
.LVL849:
	.loc 1 38699 19 is_stmt 1 view .LVU3047
	cmpl	%ebx, %r9d
	jbe	.L728
.LBB1905:
	.loc 1 38700 9 view .LVU3048
.LVL850:
.LBB1891:
	.loc 1 38671 27 view .LVU3049
.LBB1866:
	.loc 1 38673 5 view .LVU3050
	.loc 1 38674 5 view .LVU3051
	.loc 1 38675 5 view .LVU3052
	.loc 1 38677 5 view .LVU3053
	.loc 1 38679 5 view .LVU3054
	.loc 1 38680 5 view .LVU3055
	.loc 1 38681 5 view .LVU3056
	.loc 1 38683 5 view .LVU3057
	.loc 1 38683 5 is_stmt 0 view .LVU3058
.LBE1866:
.LBE1891:
	.loc 1 38701 9 is_stmt 1 view .LVU3059
	.loc 1 38700 49 is_stmt 0 view .LVU3060
	movswl	(%rcx,%rbx,2), %r10d
.LBB1892:
.LBB1867:
	.loc 1 38679 7 view .LVU3061
	movl	%r10d, %r11d
.LBE1867:
.LBE1892:
	.loc 1 38700 49 view .LVU3062
	movswl	(%rdi,%rbx,2), %r10d
.LBB1893:
.LBB1868:
	.loc 1 38679 7 view .LVU3063
	imull	%r8d, %r11d
	.loc 1 38680 7 view .LVU3064
	imull	%eax, %r10d
	.loc 1 38681 7 view .LVU3065
	addl	%r11d, %r10d
	.loc 1 38683 25 view .LVU3066
	sarl	$12, %r10d
	.loc 1 38683 33 view .LVU3067
	movw	%r10w, (%rsi,%rbx,2)
.LBE1868:
.LBE1893:
.LBE1905:
	.loc 1 38699 5 is_stmt 1 view .LVU3068
	.loc 1 38699 33 is_stmt 0 view .LVU3069
	leal	5(%rdx), %ebx
.LVL851:
	.loc 1 38699 19 is_stmt 1 view .LVU3070
	cmpl	%ebx, %r9d
	jbe	.L728
.LBB1906:
	.loc 1 38700 9 view .LVU3071
.LVL852:
.LBB1894:
	.loc 1 38671 27 view .LVU3072
.LBB1869:
	.loc 1 38673 5 view .LVU3073
	.loc 1 38674 5 view .LVU3074
	.loc 1 38675 5 view .LVU3075
	.loc 1 38677 5 view .LVU3076
	.loc 1 38679 5 view .LVU3077
	.loc 1 38680 5 view .LVU3078
	.loc 1 38681 5 view .LVU3079
	.loc 1 38683 5 view .LVU3080
	.loc 1 38683 5 is_stmt 0 view .LVU3081
.LBE1869:
.LBE1894:
	.loc 1 38701 9 is_stmt 1 view .LVU3082
	.loc 1 38700 49 is_stmt 0 view .LVU3083
	movswl	(%rcx,%rbx,2), %r10d
.LBE1906:
	.loc 1 38699 33 view .LVU3084
	addl	$6, %edx
.LBB1907:
.LBB1895:
.LBB1870:
	.loc 1 38679 7 view .LVU3085
	movl	%r10d, %r11d
.LBE1870:
.LBE1895:
	.loc 1 38700 49 view .LVU3086
	movswl	(%rdi,%rbx,2), %r10d
.LBB1896:
.LBB1871:
	.loc 1 38679 7 view .LVU3087
	imull	%r8d, %r11d
	.loc 1 38680 7 view .LVU3088
	imull	%eax, %r10d
	.loc 1 38681 7 view .LVU3089
	addl	%r11d, %r10d
	.loc 1 38683 25 view .LVU3090
	sarl	$12, %r10d
	.loc 1 38683 33 view .LVU3091
	movw	%r10w, (%rsi,%rbx,2)
.LBE1871:
.LBE1896:
.LBE1907:
	.loc 1 38699 5 is_stmt 1 view .LVU3092
.LVL853:
	.loc 1 38699 19 view .LVU3093
	cmpl	%edx, %r9d
	jbe	.L728
.LBB1908:
	.loc 1 38700 9 view .LVU3094
.LVL854:
.LBB1897:
	.loc 1 38671 27 view .LVU3095
.LBB1872:
	.loc 1 38673 5 view .LVU3096
	.loc 1 38674 5 view .LVU3097
	.loc 1 38675 5 view .LVU3098
	.loc 1 38677 5 view .LVU3099
	.loc 1 38679 5 view .LVU3100
	.loc 1 38680 5 view .LVU3101
	.loc 1 38681 5 view .LVU3102
	.loc 1 38683 5 view .LVU3103
	.loc 1 38683 5 is_stmt 0 view .LVU3104
.LBE1872:
.LBE1897:
	.loc 1 38701 9 is_stmt 1 view .LVU3105
	.loc 1 38700 49 is_stmt 0 view .LVU3106
	movswl	(%rdi,%rdx,2), %edi
	movswl	(%rcx,%rdx,2), %ecx
.LBB1898:
.LBB1873:
	.loc 1 38680 7 view .LVU3107
	imull	%edi, %eax
.LVL855:
	.loc 1 38679 7 view .LVU3108
	imull	%ecx, %r8d
.LVL856:
	.loc 1 38681 7 view .LVU3109
	addl	%r8d, %eax
	.loc 1 38683 25 view .LVU3110
	sarl	$12, %eax
	.loc 1 38683 33 view .LVU3111
	movw	%ax, (%rsi,%rdx,2)
.LBE1873:
.LBE1898:
.LBE1908:
	.loc 1 38699 5 is_stmt 1 view .LVU3112
	.loc 1 38699 19 view .LVU3113
.LVL857:
.L728:
	.loc 1 38699 19 is_stmt 0 view .LVU3114
.LBE1911:
	.loc 1 38703 1 view .LVU3115
	movq	-8(%rbp), %rbx
	leave
	.cfi_remember_state
	.cfi_def_cfa 7, 8
	ret
.LVL858:
.L734:
	.cfi_restore_state
.LBB1912:
	.loc 1 38699 12 view .LVU3116
	xorl	%edx, %edx
	jmp	.L731
.L737:
.LBB1909:
	.loc 1 38700 9 is_stmt 1 view .LVU3117
.LVL859:
.LBB1899:
	.loc 1 38671 27 view .LVU3118
.LBB1874:
	.loc 1 38673 5 view .LVU3119
	.loc 1 38674 5 view .LVU3120
	.loc 1 38675 5 view .LVU3121
	.loc 1 38677 5 view .LVU3122
	movl	$.LC74, %ecx
	movl	$38677, %edx
	movl	$.LC8, %esi
.LVL860:
	.loc 1 38677 5 is_stmt 0 view .LVU3123
	movl	$.LC75, %edi
	call	__assert_fail
.LVL861:
.L736:
	.loc 1 38677 5 view .LVU3124
.LBE1874:
.LBE1899:
.LBE1909:
.LBE1912:
.LBB1913:
.LBI1913:
	.loc 1 38686 13 is_stmt 1 view .LVU3125
.LBB1914:
	.loc 1 38694 5 is_stmt 0 view .LVU3126
	movl	$.LC72, %ecx
.LVL862:
	.loc 1 38694 5 view .LVU3127
	movl	$38694, %edx
	movl	$.LC8, %esi
.LVL863:
	.loc 1 38694 5 view .LVU3128
	movl	$.LC73, %edi
.LVL864:
	.loc 1 38694 5 view .LVU3129
	call	__assert_fail
.LVL865:
	.loc 1 38694 5 view .LVU3130
.LBE1914:
.LBE1913:
	.cfi_endproc
.LFE110:
	.size	_ZL41ma_linear_resampler_interpolate_frame_s16P19ma_linear_resamplerPs, .-_ZL41ma_linear_resampler_interpolate_frame_s16P19ma_linear_resamplerPs
	.p2align 4
	.type	_ZL36ma_resampling_backend_uninit__linearPvS_PK23ma_allocation_callbacks, @function
_ZL36ma_resampling_backend_uninit__linearPvS_PK23ma_allocation_callbacks:
.LVL866:
.LFB112:
	.loc 1 39262 1 is_stmt 1 view -0
	.cfi_startproc
	.loc 1 39262 1 is_stmt 0 view .LVU3132
	pushq	%rbp
	.cfi_def_cfa_offset 16
	.cfi_offset 6, -16
	movq	%rsp, %rbp
	.cfi_def_cfa_register 6
1:	call	mcount
	.loc 1 39262 1 view .LVU3133
	.loc 1 39263 5 is_stmt 1 view .LVU3134
	.loc 1 39265 5 view .LVU3135
	.loc 1 39262 1 is_stmt 0 view .LVU3136
	movq	%rsi, %rdi
.LVL867:
	.loc 1 39262 1 view .LVU3137
	movq	%rdx, %rsi
.LVL868:
.LBB1915:
.LBI1915:
	.loc 1 38658 13 is_stmt 1 view .LVU3138
.LBB1916:
	.loc 1 38660 5 view .LVU3139
	testq	%rdi, %rdi
	je	.L738
.LBE1916:
.LBE1915:
	.loc 1 39266 1 is_stmt 0 view .LVU3140
	popq	%rbp
	.cfi_remember_state
	.cfi_def_cfa 7, 8
.LBB1918:
.LBB1917:
	jmp	ma_linear_resampler_uninit.part.0
.LVL869:
	.p2align 4,,10
	.p2align 3
.L738:
	.cfi_restore_state
	.loc 1 39266 1 view .LVU3141
.LBE1917:
.LBE1918:
	popq	%rbp
	.cfi_def_cfa 7, 8
	ret
	.cfi_endproc
.LFE112:
	.size	_ZL36ma_resampling_backend_uninit__linearPvS_PK23ma_allocation_callbacks, .-_ZL36ma_resampling_backend_uninit__linearPvS_PK23ma_allocation_callbacks
	.p2align 4
	.type	_ZL51ma_resampler_config_init_from_data_converter_configPK24ma_data_converter_config, @function
_ZL51ma_resampler_config_init_from_data_converter_configPK24ma_data_converter_config:
.LVL870:
.LFB113:
	.loc 1 41169 1 is_stmt 1 view -0
	.cfi_startproc
	.loc 1 41169 1 is_stmt 0 view .LVU3143
	pushq	%rbp
	.cfi_def_cfa_offset 16
	.cfi_offset 6, -16
	movq	%rsp, %rbp
	.cfi_def_cfa_register 6
	subq	$48, %rsp
1:	call	mcount
	.loc 1 41169 1 view .LVU3144
	.loc 1 41170 5 is_stmt 1 view .LVU3145
	.loc 1 41171 5 view .LVU3146
	.loc 1 41173 5 view .LVU3147
	.loc 1 41176 5 view .LVU3148
	movl	12(%rsi), %eax
	cmpl	%eax, 8(%rsi)
	cmovbe	8(%rsi), %eax
	.loc 1 41182 149 is_stmt 0 view .LVU3149
	movl	20(%rsi), %r9d
	.loc 1 41182 126 view .LVU3150
	movl	16(%rsi), %ecx
	movl	%eax, %edx
.LVL871:
	.loc 1 41182 5 is_stmt 1 view .LVU3151
.LBB1933:
.LBI1933:
	.loc 1 41129 18 view .LVU3152
.LBB1934:
	.loc 1 41131 5 view .LVU3153
	.loc 1 41142 5 view .LVU3154
.LBB1935:
.LBI1935:
	.loc 1 41122 18 view .LVU3155
.LBB1936:
	.loc 1 41124 5 view .LVU3156
	.loc 1 41126 5 view .LVU3157
	.loc 1 41126 44 is_stmt 0 view .LVU3158
	movl	64(%rsi), %eax
.LVL872:
	.loc 1 41126 44 view .LVU3159
.LBE1936:
.LBE1935:
.LBE1934:
.LBE1933:
	.loc 1 41169 1 view .LVU3160
	movq	%rdi, %r8
	.loc 1 41182 184 view .LVU3161
	movl	88(%rsi), %edi
.LVL873:
.LBB1940:
.LBB1939:
.LBB1938:
.LBB1937:
	.loc 1 41126 44 view .LVU3162
	testl	%eax, %eax
	jne	.L746
	cmpl	%ecx, %r9d
	je	.L741
.L746:
.LVL874:
	.loc 1 41126 44 view .LVU3163
.LBE1937:
.LBE1938:
	.loc 1 41150 20 view .LVU3164
	movl	$5, %eax
	.loc 1 41142 65 view .LVU3165
	testl	%edi, %edi
	jne	.L743
.L741:
	.loc 1 41145 16 is_stmt 1 view .LVU3166
	.loc 1 41145 29 is_stmt 0 view .LVU3167
	movl	4(%rsi), %eax
	.loc 1 41145 16 view .LVU3168
	cmpl	$2, %eax
	je	.L743
	.loc 1 41145 56 view .LVU3169
	cmpl	$5, %eax
	je	.L743
	.loc 1 41147 16 is_stmt 1 view .LVU3170
	.loc 1 41147 29 is_stmt 0 view .LVU3171
	movl	(%rsi), %eax
	.loc 1 41150 20 view .LVU3172
	movl	$5, %r10d
	cmpl	$2, %eax
	cmovne	%r10d, %eax
.L743:
.LVL875:
	.loc 1 41150 20 view .LVU3173
.LBE1939:
.LBE1940:
.LBB1941:
.LBI1941:
	.loc 1 39333 28 is_stmt 1 view .LVU3174
.LBB1942:
	.loc 1 39335 5 view .LVU3175
	.loc 1 39337 5 view .LVU3176
.LBB1943:
.LBI1943:
	.loc 1 776 23 view .LVU3177
.LBB1944:
	.loc 1 781 5 view .LVU3178
	.loc 1 782 9 view .LVU3179
	.loc 1 782 15 is_stmt 0 view .LVU3180
	pxor	%xmm0, %xmm0
.LBE1944:
.LBE1943:
	.loc 1 39338 19 view .LVU3181
	movd	%ecx, %xmm1
.LBE1942:
.LBE1941:
	.loc 1 41184 60 view .LVU3182
	movdqu	96(%rsi), %xmm6
.LBB1953:
.LBB1949:
.LBB1947:
.LBB1945:
	.loc 1 782 15 view .LVU3183
	movaps	%xmm0, -32(%rbp)
.LBE1945:
.LBE1947:
	.loc 1 39338 19 view .LVU3184
	movd	%r9d, %xmm2
	movd	%edx, %xmm3
.LBB1948:
.LBB1946:
	.loc 1 782 15 view .LVU3185
	movaps	%xmm0, -16(%rbp)
.LVL876:
	.loc 1 782 15 view .LVU3186
.LBE1946:
.LBE1948:
	.loc 1 39338 5 is_stmt 1 view .LVU3187
	.loc 1 39339 5 view .LVU3188
	.loc 1 39340 5 view .LVU3189
	.loc 1 39341 5 view .LVU3190
	.loc 1 39338 19 is_stmt 0 view .LVU3191
	movd	%eax, %xmm0
	punpckldq	%xmm2, %xmm1
.LBE1949:
.LBE1953:
	.loc 1 41183 38 view .LVU3192
	movl	112(%rsi), %eax
.LVL877:
.LBB1954:
.LBB1950:
	.loc 1 39342 22 view .LVU3193
	movl	%edi, -32(%rbp)
	.loc 1 39338 19 view .LVU3194
	punpckldq	%xmm3, %xmm0
.LVL878:
	.loc 1 39338 19 view .LVU3195
.LBE1950:
.LBE1954:
	.loc 1 41182 193 view .LVU3196
	movdqa	-32(%rbp), %xmm4
.LBB1955:
.LBB1951:
	.loc 1 39345 28 view .LVU3197
	movl	$4, -8(%rbp)
.LBE1951:
.LBE1955:
	.loc 1 41182 193 view .LVU3198
	movdqa	-16(%rbp), %xmm5
.LBB1956:
.LBB1952:
	.loc 1 39338 19 view .LVU3199
	punpcklqdq	%xmm1, %xmm0
	.loc 1 39342 5 is_stmt 1 view .LVU3200
	.loc 1 39345 5 view .LVU3201
	.loc 1 39347 5 view .LVU3202
.LVL879:
	.loc 1 39347 5 is_stmt 0 view .LVU3203
.LBE1952:
.LBE1956:
	.loc 1 41182 193 view .LVU3204
	movups	%xmm4, 16(%r8)
	movups	%xmm5, 32(%r8)
	.loc 1 41183 5 is_stmt 1 view .LVU3205
	.loc 1 41182 193 is_stmt 0 view .LVU3206
	movups	%xmm0, (%r8)
	.loc 1 41183 38 view .LVU3207
	movl	%eax, 40(%r8)
	.loc 1 41184 5 is_stmt 1 view .LVU3208
	.loc 1 41185 5 view .LVU3209
	.loc 1 41187 5 view .LVU3210
	.loc 1 41188 1 is_stmt 0 view .LVU3211
	movq	%r8, %rax
	.loc 1 41184 60 view .LVU3212
	movups	%xmm6, 24(%r8)
	.loc 1 41188 1 view .LVU3213
	leave
	.cfi_def_cfa 7, 8
	ret
	.cfi_endproc
.LFE113:
	.size	_ZL51ma_resampler_config_init_from_data_converter_configPK24ma_data_converter_config, .-_ZL51ma_resampler_config_init_from_data_converter_configPK24ma_data_converter_config
	.p2align 4
	.globl	ma_copy_and_apply_volume_factor_pcm_frames
	.hidden	ma_copy_and_apply_volume_factor_pcm_frames
	.type	ma_copy_and_apply_volume_factor_pcm_frames, @function
ma_copy_and_apply_volume_factor_pcm_frames:
.LVL880:
.LFB116:
	.loc 1 30316 1 is_stmt 1 view -0
	.cfi_startproc
	.loc 1 30316 1 is_stmt 0 view .LVU3215
	pushq	%rbp
	.cfi_def_cfa_offset 16
	.cfi_offset 6, -16
	movq	%rsp, %rbp
	.cfi_def_cfa_register 6
1:	call	mcount
	.loc 1 30316 1 view .LVU3216
	.loc 1 30317 5 is_stmt 1 view .LVU3217
	.loc 1 30316 1 is_stmt 0 view .LVU3218
	movaps	%xmm0, %xmm2
	cmpl	$5, %ecx
	ja	.L756
	movl	%ecx, %ecx
	.loc 1 30316 1 view .LVU3219
	jmp	*.L759(,%rcx,8)
	.section	.rodata
	.align 8
	.align 4
.L759:
	.quad	.L756
	.quad	.L763
	.quad	.L762
	.quad	.L761
	.quad	.L760
	.quad	.L758
	.text
	.p2align 4,,10
	.p2align 3
.L761:
	.loc 1 30321 5 is_stmt 1 view .LVU3220
	.loc 1 30321 25 view .LVU3221
.LVL881:
.LBB1989:
.LBI1989:
	.loc 1 30300 13 view .LVU3222
.LBB1990:
	.loc 1 30302 5 view .LVU3223
.LBB1991:
.LBI1991:
	.loc 1 30203 13 view .LVU3224
.LBB1992:
	.loc 1 30205 5 view .LVU3225
	.loc 1 30206 5 view .LVU3226
	.loc 1 30207 5 view .LVU3227
	.loc 1 30209 5 view .LVU3228
	testq	%rdi, %rdi
	je	.L756
	testq	%rsi, %rsi
	je	.L756
.LBE1992:
.LBE1991:
	.loc 1 30302 75 is_stmt 0 view .LVU3229
	movl	%r8d, %r8d
.LVL882:
	.loc 1 30302 40 view .LVU3230
	imulq	%rdx, %r8
.LVL883:
.LBB1999:
.LBB1998:
.LBB1993:
.LBB1994:
.LBB1995:
	.loc 1 30216 31 is_stmt 1 view .LVU3231
	testq	%r8, %r8
	je	.L756
	leaq	(%r8,%r8,2), %rcx
.LVL884:
	.loc 1 30216 31 is_stmt 0 view .LVU3232
	addq	%rsi, %rcx
.LVL885:
	.p2align 4,,10
	.p2align 3
.L777:
.LBB1996:
	.loc 1 30217 9 is_stmt 1 view .LVU3233
	.loc 1 30219 9 view .LVU3234
	.loc 1 30220 9 view .LVU3235
	.loc 1 30219 33 is_stmt 0 view .LVU3236
	movzbl	(%rsi), %eax
	.loc 1 30219 80 view .LVU3237
	movzbl	1(%rsi), %edx
	.loc 1 30220 42 view .LVU3238
	pxor	%xmm0, %xmm0
.LBE1996:
	.loc 1 30216 31 view .LVU3239
	addq	$3, %rsi
.LVL886:
	.loc 1 30216 31 view .LVU3240
	addq	$3, %rdi
.LBB1997:
	.loc 1 30219 118 view .LVU3241
	sall	$16, %edx
	.loc 1 30219 71 view .LVU3242
	sall	$8, %eax
	.loc 1 30219 125 view .LVU3243
	orl	%edx, %eax
	.loc 1 30219 128 view .LVU3244
	movzbl	-1(%rsi), %edx
	.loc 1 30219 167 view .LVU3245
	sall	$24, %edx
	.loc 1 30219 125 view .LVU3246
	orl	%edx, %eax
	.loc 1 30220 42 view .LVU3247
	cvtsi2ssl	%eax, %xmm0
	mulss	%xmm2, %xmm0
.LVL887:
	.loc 1 30222 9 is_stmt 1 view .LVU3248
	.loc 1 30220 19 is_stmt 0 view .LVU3249
	cvttss2sil	%xmm0, %eax
.LVL888:
	.loc 1 30223 84 view .LVU3250
	movl	%eax, %edx
	.loc 1 30222 35 view .LVU3251
	movb	%ah, -3(%rdi)
	.loc 1 30223 9 is_stmt 1 view .LVU3252
	.loc 1 30224 84 is_stmt 0 view .LVU3253
	shrl	$24, %eax
.LVL889:
	.loc 1 30223 84 view .LVU3254
	shrl	$16, %edx
.LVL890:
	.loc 1 30224 35 view .LVU3255
	movb	%al, -1(%rdi)
	.loc 1 30223 35 view .LVU3256
	movb	%dl, -2(%rdi)
	.loc 1 30224 9 is_stmt 1 view .LVU3257
.LBE1997:
	.loc 1 30216 5 view .LVU3258
	.loc 1 30216 31 view .LVU3259
	cmpq	%rcx, %rsi
	jne	.L777
.LVL891:
.L756:
	.loc 1 30216 31 is_stmt 0 view .LVU3260
.LBE1995:
.LBE1994:
.LBE1993:
.LBE1998:
.LBE1999:
.LBE1990:
.LBE1989:
	.loc 1 30326 1 view .LVU3261
	popq	%rbp
	.cfi_remember_state
	.cfi_def_cfa 7, 8
	ret
.LVL892:
	.p2align 4,,10
	.p2align 3
.L758:
	.cfi_restore_state
	.loc 1 30323 5 is_stmt 1 view .LVU3262
	.loc 1 30323 25 view .LVU3263
.LBB2000:
.LBI2000:
	.loc 1 30310 13 view .LVU3264
.LBB2001:
	.loc 1 30312 5 view .LVU3265
.LBB2002:
.LBI2002:
	.loc 1 30241 13 view .LVU3266
.LBB2003:
	.loc 1 30243 5 view .LVU3267
	.loc 1 30245 5 view .LVU3268
	testq	%rdi, %rdi
	je	.L756
	testq	%rsi, %rsi
	je	.L756
.LBE2003:
.LBE2002:
	.loc 1 30312 75 is_stmt 0 view .LVU3269
	movl	%r8d, %r8d
.LVL893:
	.loc 1 30312 40 view .LVU3270
	imulq	%rdx, %r8
.LVL894:
.LBB2016:
.LBB2010:
	.loc 1 30249 5 is_stmt 1 view .LVU3271
	comiss	.LC77(%rip), %xmm0
	jne	.L849
	.loc 1 30250 9 view .LVU3272
	cmpq	%rsi, %rdi
	je	.L756
.LVL895:
.LBB2004:
.LBB2005:
	.loc 1 30254 39 view .LVU3273
	testq	%r8, %r8
	je	.L756
	leaq	4(%rsi), %rdx
.LVL896:
	.loc 1 30254 39 is_stmt 0 view .LVU3274
	movq	%rdi, %rax
	subq	%rdx, %rax
	cmpq	$8, %rax
	jbe	.L798
	leaq	-1(%r8), %rax
	cmpq	$3, %rax
	jbe	.L798
	movq	%r8, %rdx
	xorl	%eax, %eax
	shrq	$2, %rdx
	salq	$4, %rdx
.LVL897:
	.p2align 4,,10
	.p2align 3
.L787:
	.loc 1 30255 17 is_stmt 1 view .LVU3275
	.loc 1 30255 38 is_stmt 0 view .LVU3276
	movups	(%rsi,%rax), %xmm7
	movups	%xmm7, (%rdi,%rax)
	.loc 1 30254 13 is_stmt 1 view .LVU3277
	.loc 1 30254 39 view .LVU3278
	addq	$16, %rax
	cmpq	%rdx, %rax
	jne	.L787
	movq	%r8, %rax
	andq	$-4, %rax
	testb	$3, %r8b
	je	.L756
.LVL898:
	.loc 1 30255 17 view .LVU3279
	.loc 1 30255 58 is_stmt 0 view .LVU3280
	movss	(%rsi,%rax,4), %xmm0
.LVL899:
	.loc 1 30254 62 view .LVU3281
	leaq	1(%rax), %rdx
	.loc 1 30255 38 view .LVU3282
	movss	%xmm0, (%rdi,%rax,4)
	.loc 1 30254 13 is_stmt 1 view .LVU3283
.LVL900:
	.loc 1 30254 39 view .LVU3284
	cmpq	%rdx, %r8
	jbe	.L756
	.loc 1 30255 17 view .LVU3285
	.loc 1 30255 58 is_stmt 0 view .LVU3286
	movss	(%rsi,%rdx,4), %xmm0
	.loc 1 30254 62 view .LVU3287
	addq	$2, %rax
	.loc 1 30255 38 view .LVU3288
	movss	%xmm0, (%rdi,%rdx,4)
	.loc 1 30254 13 is_stmt 1 view .LVU3289
.LVL901:
	.loc 1 30254 39 view .LVU3290
	cmpq	%rax, %r8
	jbe	.L756
	.loc 1 30255 17 view .LVU3291
	.loc 1 30255 58 is_stmt 0 view .LVU3292
	movss	(%rsi,%rax,4), %xmm0
.LBE2005:
.LBE2004:
.LBE2010:
.LBE2016:
.LBE2001:
.LBE2000:
	.loc 1 30326 1 view .LVU3293
	popq	%rbp
	.cfi_remember_state
	.cfi_def_cfa 7, 8
.LBB2027:
.LBB2022:
.LBB2017:
.LBB2011:
.LBB2008:
.LBB2006:
	.loc 1 30255 38 view .LVU3294
	movss	%xmm0, (%rdi,%rax,4)
	.loc 1 30254 13 is_stmt 1 view .LVU3295
	.loc 1 30254 39 view .LVU3296
.LBE2006:
.LBE2008:
.LBE2011:
.LBE2017:
.LBE2022:
.LBE2027:
	.loc 1 30326 1 is_stmt 0 view .LVU3297
	ret
.LVL902:
	.p2align 4,,10
	.p2align 3
.L763:
	.cfi_restore_state
	.loc 1 30319 5 is_stmt 1 view .LVU3298
	.loc 1 30319 25 view .LVU3299
.LBB2028:
.LBI2028:
	.loc 1 30290 13 view .LVU3300
.LBB2029:
	.loc 1 30292 5 view .LVU3301
.LBB2030:
.LBI2030:
	.loc 1 30177 13 view .LVU3302
.LBB2031:
	.loc 1 30179 5 view .LVU3303
	.loc 1 30181 5 view .LVU3304
	testq	%rdi, %rdi
	je	.L756
	testq	%rsi, %rsi
	je	.L756
.LBE2031:
.LBE2030:
	.loc 1 30292 74 is_stmt 0 view .LVU3305
	movl	%r8d, %r8d
.LVL903:
	.loc 1 30292 39 view .LVU3306
	imulq	%rdx, %r8
.LVL904:
.LBB2038:
.LBB2036:
.LBB2032:
.LBB2033:
	.loc 1 30185 31 is_stmt 1 view .LVU3307
	testq	%r8, %r8
	je	.L756
	leaq	1(%rsi), %rdx
.LVL905:
	.loc 1 30185 31 is_stmt 0 view .LVU3308
	movq	%rdi, %rax
	subq	%rdx, %rax
	cmpq	$14, %rax
	jbe	.L795
	leaq	-1(%r8), %rax
	cmpq	$14, %rax
	jbe	.L795
	movq	%r8, %rdx
	movdqa	.LC76(%rip), %xmm7
	movaps	%xmm0, %xmm5
	xorl	%eax, %eax
	andq	$-16, %rdx
	.loc 1 30186 61 view .LVU3309
	pxor	%xmm6, %xmm6
	pxor	%xmm4, %xmm4
	shufps	$0, %xmm5, %xmm5
.LVL906:
	.p2align 4,,10
	.p2align 3
.L769:
	.loc 1 30186 9 is_stmt 1 view .LVU3310
	.loc 1 30186 61 is_stmt 0 view .LVU3311
	movdqu	(%rsi,%rax), %xmm3
	movdqa	%xmm3, %xmm1
	punpckhbw	%xmm6, %xmm3
	punpcklbw	%xmm6, %xmm1
	movdqa	%xmm1, %xmm0
	punpckhwd	%xmm4, %xmm1
	punpcklwd	%xmm4, %xmm0
	.loc 1 30186 63 view .LVU3312
	cvtdq2ps	%xmm1, %xmm1
	cvtdq2ps	%xmm0, %xmm0
	mulps	%xmm5, %xmm1
	mulps	%xmm5, %xmm0
	.loc 1 30186 32 view .LVU3313
	cvttps2dq	%xmm1, %xmm1
	cvttps2dq	%xmm0, %xmm0
	movdqa	%xmm0, %xmm8
	punpcklwd	%xmm1, %xmm0
	punpckhwd	%xmm1, %xmm8
	movdqa	%xmm0, %xmm1
	punpckhwd	%xmm8, %xmm1
	punpcklwd	%xmm8, %xmm0
	punpcklwd	%xmm1, %xmm0
	.loc 1 30186 61 view .LVU3314
	movdqa	%xmm3, %xmm1
	punpckhwd	%xmm4, %xmm3
	punpcklwd	%xmm4, %xmm1
	.loc 1 30186 63 view .LVU3315
	cvtdq2ps	%xmm3, %xmm3
	.loc 1 30186 32 view .LVU3316
	pand	%xmm7, %xmm0
	.loc 1 30186 63 view .LVU3317
	mulps	%xmm5, %xmm3
	cvtdq2ps	%xmm1, %xmm1
	mulps	%xmm5, %xmm1
	.loc 1 30186 32 view .LVU3318
	cvttps2dq	%xmm3, %xmm3
	cvttps2dq	%xmm1, %xmm1
	movdqa	%xmm1, %xmm8
	punpcklwd	%xmm3, %xmm1
	punpckhwd	%xmm3, %xmm8
	movdqa	%xmm1, %xmm3
	punpckhwd	%xmm8, %xmm3
	punpcklwd	%xmm8, %xmm1
	punpcklwd	%xmm3, %xmm1
	pand	%xmm7, %xmm1
	packuswb	%xmm1, %xmm0
	.loc 1 30186 30 view .LVU3319
	movups	%xmm0, (%rdi,%rax)
	.loc 1 30185 5 is_stmt 1 view .LVU3320
	.loc 1 30185 31 view .LVU3321
	addq	$16, %rax
	cmpq	%rax, %rdx
	jne	.L769
	movq	%r8, %rax
	andq	$-16, %rax
	testb	$15, %r8b
	je	.L756
.LVL907:
	.loc 1 30186 9 view .LVU3322
	.loc 1 30186 61 is_stmt 0 view .LVU3323
	movzbl	(%rsi,%rax), %edx
	.loc 1 30186 63 view .LVU3324
	pxor	%xmm0, %xmm0
	cvtsi2ssl	%edx, %xmm0
	mulss	%xmm2, %xmm0
	.loc 1 30186 32 view .LVU3325
	cvttss2sil	%xmm0, %edx
	movb	%dl, (%rdi,%rax)
	.loc 1 30185 5 is_stmt 1 view .LVU3326
	.loc 1 30185 54 is_stmt 0 view .LVU3327
	leaq	1(%rax), %rdx
.LVL908:
	.loc 1 30185 31 is_stmt 1 view .LVU3328
	cmpq	%rdx, %r8
	jbe	.L756
	.loc 1 30186 9 view .LVU3329
	.loc 1 30186 61 is_stmt 0 view .LVU3330
	movzbl	1(%rsi,%rax), %edx
.LVL909:
	.loc 1 30186 63 view .LVU3331
	pxor	%xmm0, %xmm0
	cvtsi2ssl	%edx, %xmm0
	mulss	%xmm2, %xmm0
	.loc 1 30186 32 view .LVU3332
	cvttss2sil	%xmm0, %edx
	movb	%dl, 1(%rdi,%rax)
	.loc 1 30185 5 is_stmt 1 view .LVU3333
	.loc 1 30185 54 is_stmt 0 view .LVU3334
	leaq	2(%rax), %rdx
.LVL910:
	.loc 1 30185 31 is_stmt 1 view .LVU3335
	cmpq	%rdx, %r8
	jbe	.L756
	.loc 1 30186 9 view .LVU3336
	.loc 1 30186 61 is_stmt 0 view .LVU3337
	movzbl	2(%rsi,%rax), %edx
.LVL911:
	.loc 1 30186 63 view .LVU3338
	pxor	%xmm0, %xmm0
	cvtsi2ssl	%edx, %xmm0
	mulss	%xmm2, %xmm0
	.loc 1 30186 32 view .LVU3339
	cvttss2sil	%xmm0, %edx
	movb	%dl, 2(%rdi,%rax)
	.loc 1 30185 5 is_stmt 1 view .LVU3340
	.loc 1 30185 54 is_stmt 0 view .LVU3341
	leaq	3(%rax), %rdx
.LVL912:
	.loc 1 30185 31 is_stmt 1 view .LVU3342
	cmpq	%rdx, %r8
	jbe	.L756
	.loc 1 30186 9 view .LVU3343
	.loc 1 30186 61 is_stmt 0 view .LVU3344
	movzbl	3(%rsi,%rax), %edx
.LVL913:
	.loc 1 30186 63 view .LVU3345
	pxor	%xmm0, %xmm0
	cvtsi2ssl	%edx, %xmm0
	mulss	%xmm2, %xmm0
	.loc 1 30186 32 view .LVU3346
	cvttss2sil	%xmm0, %edx
	movb	%dl, 3(%rdi,%rax)
	.loc 1 30185 5 is_stmt 1 view .LVU3347
	.loc 1 30185 54 is_stmt 0 view .LVU3348
	leaq	4(%rax), %rdx
.LVL914:
	.loc 1 30185 31 is_stmt 1 view .LVU3349
	cmpq	%rdx, %r8
	jbe	.L756
	.loc 1 30186 9 view .LVU3350
	.loc 1 30186 61 is_stmt 0 view .LVU3351
	movzbl	4(%rsi,%rax), %edx
.LVL915:
	.loc 1 30186 63 view .LVU3352
	pxor	%xmm0, %xmm0
	cvtsi2ssl	%edx, %xmm0
	mulss	%xmm2, %xmm0
	.loc 1 30186 32 view .LVU3353
	cvttss2sil	%xmm0, %edx
	movb	%dl, 4(%rdi,%rax)
	.loc 1 30185 5 is_stmt 1 view .LVU3354
	.loc 1 30185 54 is_stmt 0 view .LVU3355
	leaq	5(%rax), %rdx
.LVL916:
	.loc 1 30185 31 is_stmt 1 view .LVU3356
	cmpq	%rdx, %r8
	jbe	.L756
	.loc 1 30186 9 view .LVU3357
	.loc 1 30186 61 is_stmt 0 view .LVU3358
	movzbl	5(%rsi,%rax), %edx
.LVL917:
	.loc 1 30186 63 view .LVU3359
	pxor	%xmm0, %xmm0
	cvtsi2ssl	%edx, %xmm0
	mulss	%xmm2, %xmm0
	.loc 1 30186 32 view .LVU3360
	cvttss2sil	%xmm0, %edx
	movb	%dl, 5(%rdi,%rax)
	.loc 1 30185 5 is_stmt 1 view .LVU3361
	.loc 1 30185 54 is_stmt 0 view .LVU3362
	leaq	6(%rax), %rdx
.LVL918:
	.loc 1 30185 31 is_stmt 1 view .LVU3363
	cmpq	%rdx, %r8
	jbe	.L756
	.loc 1 30186 9 view .LVU3364
	.loc 1 30186 61 is_stmt 0 view .LVU3365
	movzbl	6(%rsi,%rax), %edx
.LVL919:
	.loc 1 30186 63 view .LVU3366
	pxor	%xmm0, %xmm0
	cvtsi2ssl	%edx, %xmm0
	mulss	%xmm2, %xmm0
	.loc 1 30186 32 view .LVU3367
	cvttss2sil	%xmm0, %edx
	movb	%dl, 6(%rdi,%rax)
	.loc 1 30185 5 is_stmt 1 view .LVU3368
	.loc 1 30185 54 is_stmt 0 view .LVU3369
	leaq	7(%rax), %rdx
.LVL920:
	.loc 1 30185 31 is_stmt 1 view .LVU3370
	cmpq	%rdx, %r8
	jbe	.L756
	.loc 1 30186 9 view .LVU3371
	.loc 1 30186 61 is_stmt 0 view .LVU3372
	movzbl	7(%rsi,%rax), %edx
.LVL921:
	.loc 1 30186 63 view .LVU3373
	pxor	%xmm0, %xmm0
	cvtsi2ssl	%edx, %xmm0
	mulss	%xmm2, %xmm0
	.loc 1 30186 32 view .LVU3374
	cvttss2sil	%xmm0, %edx
	movb	%dl, 7(%rdi,%rax)
	.loc 1 30185 5 is_stmt 1 view .LVU3375
	.loc 1 30185 54 is_stmt 0 view .LVU3376
	leaq	8(%rax), %rdx
.LVL922:
	.loc 1 30185 31 is_stmt 1 view .LVU3377
	cmpq	%rdx, %r8
	jbe	.L756
	.loc 1 30186 9 view .LVU3378
	.loc 1 30186 61 is_stmt 0 view .LVU3379
	movzbl	8(%rsi,%rax), %edx
.LVL923:
	.loc 1 30186 63 view .LVU3380
	pxor	%xmm0, %xmm0
	cvtsi2ssl	%edx, %xmm0
	mulss	%xmm2, %xmm0
	.loc 1 30186 32 view .LVU3381
	cvttss2sil	%xmm0, %edx
	movb	%dl, 8(%rdi,%rax)
	.loc 1 30185 5 is_stmt 1 view .LVU3382
	.loc 1 30185 54 is_stmt 0 view .LVU3383
	leaq	9(%rax), %rdx
.LVL924:
	.loc 1 30185 31 is_stmt 1 view .LVU3384
	cmpq	%rdx, %r8
	jbe	.L756
	.loc 1 30186 9 view .LVU3385
	.loc 1 30186 61 is_stmt 0 view .LVU3386
	movzbl	9(%rsi,%rax), %edx
.LVL925:
	.loc 1 30186 63 view .LVU3387
	pxor	%xmm0, %xmm0
	cvtsi2ssl	%edx, %xmm0
	mulss	%xmm2, %xmm0
	.loc 1 30186 32 view .LVU3388
	cvttss2sil	%xmm0, %edx
	movb	%dl, 9(%rdi,%rax)
	.loc 1 30185 5 is_stmt 1 view .LVU3389
	.loc 1 30185 54 is_stmt 0 view .LVU3390
	leaq	10(%rax), %rdx
.LVL926:
	.loc 1 30185 31 is_stmt 1 view .LVU3391
	cmpq	%rdx, %r8
	jbe	.L756
	.loc 1 30186 9 view .LVU3392
	.loc 1 30186 61 is_stmt 0 view .LVU3393
	movzbl	10(%rsi,%rax), %edx
.LVL927:
	.loc 1 30186 63 view .LVU3394
	pxor	%xmm0, %xmm0
	cvtsi2ssl	%edx, %xmm0
	mulss	%xmm2, %xmm0
	.loc 1 30186 32 view .LVU3395
	cvttss2sil	%xmm0, %edx
	movb	%dl, 10(%rdi,%rax)
	.loc 1 30185 5 is_stmt 1 view .LVU3396
	.loc 1 30185 54 is_stmt 0 view .LVU3397
	leaq	11(%rax), %rdx
.LVL928:
	.loc 1 30185 31 is_stmt 1 view .LVU3398
	cmpq	%rdx, %r8
	jbe	.L756
	.loc 1 30186 9 view .LVU3399
	.loc 1 30186 61 is_stmt 0 view .LVU3400
	movzbl	11(%rsi,%rax), %edx
.LVL929:
	.loc 1 30186 63 view .LVU3401
	pxor	%xmm0, %xmm0
	cvtsi2ssl	%edx, %xmm0
	mulss	%xmm2, %xmm0
	.loc 1 30186 32 view .LVU3402
	cvttss2sil	%xmm0, %edx
	movb	%dl, 11(%rdi,%rax)
	.loc 1 30185 5 is_stmt 1 view .LVU3403
	.loc 1 30185 54 is_stmt 0 view .LVU3404
	leaq	12(%rax), %rdx
.LVL930:
	.loc 1 30185 31 is_stmt 1 view .LVU3405
	cmpq	%rdx, %r8
	jbe	.L756
	.loc 1 30186 9 view .LVU3406
	.loc 1 30186 61 is_stmt 0 view .LVU3407
	movzbl	12(%rsi,%rax), %edx
.LVL931:
	.loc 1 30186 63 view .LVU3408
	pxor	%xmm0, %xmm0
	cvtsi2ssl	%edx, %xmm0
	mulss	%xmm2, %xmm0
	.loc 1 30186 32 view .LVU3409
	cvttss2sil	%xmm0, %edx
	movb	%dl, 12(%rdi,%rax)
	.loc 1 30185 5 is_stmt 1 view .LVU3410
	.loc 1 30185 54 is_stmt 0 view .LVU3411
	leaq	13(%rax), %rdx
.LVL932:
	.loc 1 30185 31 is_stmt 1 view .LVU3412
	cmpq	%rdx, %r8
	jbe	.L756
	.loc 1 30186 9 view .LVU3413
	.loc 1 30186 61 is_stmt 0 view .LVU3414
	movzbl	13(%rsi,%rax), %edx
.LVL933:
	.loc 1 30186 63 view .LVU3415
	pxor	%xmm0, %xmm0
	cvtsi2ssl	%edx, %xmm0
	mulss	%xmm2, %xmm0
	.loc 1 30186 32 view .LVU3416
	cvttss2sil	%xmm0, %edx
	movb	%dl, 13(%rdi,%rax)
	.loc 1 30185 5 is_stmt 1 view .LVU3417
	.loc 1 30185 54 is_stmt 0 view .LVU3418
	leaq	14(%rax), %rdx
.LVL934:
	.loc 1 30185 31 is_stmt 1 view .LVU3419
	cmpq	%rdx, %r8
	jbe	.L756
	.loc 1 30186 9 view .LVU3420
	.loc 1 30186 61 is_stmt 0 view .LVU3421
	movzbl	14(%rsi,%rax), %edx
.LVL935:
	.loc 1 30186 63 view .LVU3422
	pxor	%xmm0, %xmm0
	cvtsi2ssl	%edx, %xmm0
	mulss	%xmm2, %xmm0
	.loc 1 30186 32 view .LVU3423
	cvttss2sil	%xmm0, %edx
	movb	%dl, 14(%rdi,%rax)
	.loc 1 30185 5 is_stmt 1 view .LVU3424
.LVL936:
	.loc 1 30185 31 view .LVU3425
.LBE2033:
.LBE2032:
.LBE2036:
.LBE2038:
.LBE2029:
.LBE2028:
	.loc 1 30326 1 is_stmt 0 view .LVU3426
	popq	%rbp
	.cfi_remember_state
	.cfi_def_cfa 7, 8
	ret
.LVL937:
	.p2align 4,,10
	.p2align 3
.L762:
	.cfi_restore_state
	.loc 1 30320 5 is_stmt 1 view .LVU3427
	.loc 1 30320 25 view .LVU3428
.LBB2041:
.LBI2041:
	.loc 1 30295 13 view .LVU3429
.LBB2042:
	.loc 1 30297 5 view .LVU3430
.LBB2043:
.LBI2043:
	.loc 1 30190 13 view .LVU3431
.LBB2044:
	.loc 1 30192 5 view .LVU3432
	.loc 1 30194 5 view .LVU3433
	testq	%rdi, %rdi
	je	.L756
	testq	%rsi, %rsi
	je	.L756
.LBE2044:
.LBE2043:
	.loc 1 30297 75 is_stmt 0 view .LVU3434
	movl	%r8d, %r8d
.LVL938:
	.loc 1 30297 40 view .LVU3435
	imulq	%rdx, %r8
.LVL939:
.LBB2054:
.LBB2051:
.LBB2045:
.LBB2046:
	.loc 1 30198 31 is_stmt 1 view .LVU3436
	testq	%r8, %r8
	je	.L756
	leaq	2(%rsi), %rdx
.LVL940:
	.loc 1 30198 31 is_stmt 0 view .LVU3437
	movq	%rdi, %rax
	subq	%rdx, %rax
	cmpq	$12, %rax
	jbe	.L796
	leaq	-1(%r8), %rax
	cmpq	$6, %rax
	jbe	.L796
	movq	%r8, %rdx
	movaps	%xmm0, %xmm4
	.loc 1 30199 63 view .LVU3438
	pxor	%xmm5, %xmm5
	.loc 1 30198 31 view .LVU3439
	xorl	%eax, %eax
	shrq	$3, %rdx
	shufps	$0, %xmm4, %xmm4
	salq	$4, %rdx
.LVL941:
	.p2align 4,,10
	.p2align 3
.L774:
	.loc 1 30199 9 is_stmt 1 view .LVU3440
	.loc 1 30199 61 is_stmt 0 view .LVU3441
	movdqu	(%rsi,%rax), %xmm1
	.loc 1 30199 63 view .LVU3442
	movdqa	%xmm5, %xmm3
	pcmpgtw	%xmm1, %xmm3
	movdqa	%xmm1, %xmm0
	punpcklwd	%xmm3, %xmm0
	punpckhwd	%xmm3, %xmm1
	cvtdq2ps	%xmm0, %xmm0
	cvtdq2ps	%xmm1, %xmm1
	mulps	%xmm4, %xmm0
	mulps	%xmm4, %xmm1
	.loc 1 30199 32 view .LVU3443
	cvttps2dq	%xmm0, %xmm0
	movdqa	%xmm0, %xmm3
	cvttps2dq	%xmm1, %xmm1
	punpcklwd	%xmm1, %xmm0
	punpckhwd	%xmm1, %xmm3
	movdqa	%xmm0, %xmm1
	punpcklwd	%xmm3, %xmm0
	punpckhwd	%xmm3, %xmm1
	punpcklwd	%xmm1, %xmm0
	.loc 1 30199 30 view .LVU3444
	movups	%xmm0, (%rdi,%rax)
	.loc 1 30198 5 is_stmt 1 view .LVU3445
	.loc 1 30198 31 view .LVU3446
	addq	$16, %rax
	cmpq	%rax, %rdx
	jne	.L774
	movq	%r8, %rax
	andq	$-8, %rax
	testb	$7, %r8b
	je	.L756
.LVL942:
	.loc 1 30199 9 view .LVU3447
	.loc 1 30199 63 is_stmt 0 view .LVU3448
	movswl	(%rsi,%rax,2), %edx
	pxor	%xmm0, %xmm0
	cvtsi2ssl	%edx, %xmm0
	mulss	%xmm2, %xmm0
	.loc 1 30199 32 view .LVU3449
	cvttss2sil	%xmm0, %edx
	movw	%dx, (%rdi,%rax,2)
	.loc 1 30198 5 is_stmt 1 view .LVU3450
	.loc 1 30198 54 is_stmt 0 view .LVU3451
	leaq	1(%rax), %rdx
.LVL943:
	.loc 1 30198 31 is_stmt 1 view .LVU3452
	cmpq	%rdx, %r8
	jbe	.L756
	.loc 1 30199 9 view .LVU3453
	.loc 1 30199 63 is_stmt 0 view .LVU3454
	movswl	(%rsi,%rdx,2), %ecx
	pxor	%xmm0, %xmm0
	cvtsi2ssl	%ecx, %xmm0
	mulss	%xmm2, %xmm0
	.loc 1 30199 32 view .LVU3455
	cvttss2sil	%xmm0, %ecx
	movw	%cx, (%rdi,%rdx,2)
	.loc 1 30198 5 is_stmt 1 view .LVU3456
	.loc 1 30198 54 is_stmt 0 view .LVU3457
	leaq	2(%rax), %rdx
.LVL944:
	.loc 1 30198 31 is_stmt 1 view .LVU3458
	cmpq	%rdx, %r8
	jbe	.L756
	.loc 1 30199 9 view .LVU3459
	.loc 1 30199 63 is_stmt 0 view .LVU3460
	movswl	(%rsi,%rdx,2), %ecx
	pxor	%xmm0, %xmm0
	cvtsi2ssl	%ecx, %xmm0
	mulss	%xmm2, %xmm0
	.loc 1 30199 32 view .LVU3461
	cvttss2sil	%xmm0, %ecx
	movw	%cx, (%rdi,%rdx,2)
	.loc 1 30198 5 is_stmt 1 view .LVU3462
	.loc 1 30198 54 is_stmt 0 view .LVU3463
	leaq	3(%rax), %rdx
.LVL945:
	.loc 1 30198 31 is_stmt 1 view .LVU3464
	cmpq	%rdx, %r8
	jbe	.L756
	.loc 1 30199 9 view .LVU3465
	.loc 1 30199 63 is_stmt 0 view .LVU3466
	movswl	(%rsi,%rdx,2), %ecx
	pxor	%xmm0, %xmm0
	cvtsi2ssl	%ecx, %xmm0
	mulss	%xmm2, %xmm0
	.loc 1 30199 32 view .LVU3467
	cvttss2sil	%xmm0, %ecx
	movw	%cx, (%rdi,%rdx,2)
	.loc 1 30198 5 is_stmt 1 view .LVU3468
	.loc 1 30198 54 is_stmt 0 view .LVU3469
	leaq	4(%rax), %rdx
.LVL946:
	.loc 1 30198 31 is_stmt 1 view .LVU3470
	cmpq	%rdx, %r8
	jbe	.L756
	.loc 1 30199 9 view .LVU3471
	.loc 1 30199 63 is_stmt 0 view .LVU3472
	movswl	(%rsi,%rdx,2), %ecx
	pxor	%xmm0, %xmm0
	cvtsi2ssl	%ecx, %xmm0
	mulss	%xmm2, %xmm0
	.loc 1 30199 32 view .LVU3473
	cvttss2sil	%xmm0, %ecx
	movw	%cx, (%rdi,%rdx,2)
	.loc 1 30198 5 is_stmt 1 view .LVU3474
	.loc 1 30198 54 is_stmt 0 view .LVU3475
	leaq	5(%rax), %rdx
.LVL947:
	.loc 1 30198 31 is_stmt 1 view .LVU3476
	cmpq	%rdx, %r8
	jbe	.L756
	.loc 1 30199 9 view .LVU3477
	.loc 1 30199 63 is_stmt 0 view .LVU3478
	movswl	(%rsi,%rdx,2), %ecx
	pxor	%xmm0, %xmm0
	.loc 1 30198 54 view .LVU3479
	addq	$6, %rax
	.loc 1 30199 63 view .LVU3480
	cvtsi2ssl	%ecx, %xmm0
	mulss	%xmm2, %xmm0
	.loc 1 30199 32 view .LVU3481
	cvttss2sil	%xmm0, %ecx
	movw	%cx, (%rdi,%rdx,2)
	.loc 1 30198 5 is_stmt 1 view .LVU3482
.LVL948:
	.loc 1 30198 31 view .LVU3483
	cmpq	%rax, %r8
	jbe	.L756
	.loc 1 30199 9 view .LVU3484
	.loc 1 30199 63 is_stmt 0 view .LVU3485
	movswl	(%rsi,%rax,2), %edx
	pxor	%xmm0, %xmm0
.LBE2046:
.LBE2045:
.LBE2051:
.LBE2054:
.LBE2042:
.LBE2041:
	.loc 1 30326 1 view .LVU3486
	popq	%rbp
	.cfi_remember_state
	.cfi_def_cfa 7, 8
.LBB2059:
.LBB2057:
.LBB2055:
.LBB2052:
.LBB2049:
.LBB2047:
	.loc 1 30199 63 view .LVU3487
	cvtsi2ssl	%edx, %xmm0
	mulss	%xmm2, %xmm0
	.loc 1 30199 32 view .LVU3488
	cvttss2sil	%xmm0, %edx
	movw	%dx, (%rdi,%rax,2)
	.loc 1 30198 5 is_stmt 1 view .LVU3489
	.loc 1 30198 31 view .LVU3490
.LBE2047:
.LBE2049:
.LBE2052:
.LBE2055:
.LBE2057:
.LBE2059:
	.loc 1 30326 1 is_stmt 0 view .LVU3491
	ret
.LVL949:
	.p2align 4,,10
	.p2align 3
.L760:
	.cfi_restore_state
	.loc 1 30322 5 is_stmt 1 view .LVU3492
	.loc 1 30322 25 view .LVU3493
.LBB2060:
.LBI2060:
	.loc 1 30305 13 view .LVU3494
.LBB2061:
	.loc 1 30307 5 view .LVU3495
.LBB2062:
.LBI2062:
	.loc 1 30228 13 view .LVU3496
.LBB2063:
	.loc 1 30230 5 view .LVU3497
	.loc 1 30232 5 view .LVU3498
	testq	%rdi, %rdi
	je	.L756
	testq	%rsi, %rsi
	je	.L756
.LBE2063:
.LBE2062:
	.loc 1 30307 75 is_stmt 0 view .LVU3499
	movl	%r8d, %r8d
.LVL950:
	.loc 1 30307 40 view .LVU3500
	imulq	%rdx, %r8
.LVL951:
.LBB2073:
.LBB2070:
.LBB2064:
.LBB2065:
	.loc 1 30236 31 is_stmt 1 view .LVU3501
	testq	%r8, %r8
	je	.L756
	leaq	4(%rsi), %rdx
.LVL952:
	.loc 1 30236 31 is_stmt 0 view .LVU3502
	movq	%rdi, %rax
	subq	%rdx, %rax
	cmpq	$8, %rax
	jbe	.L797
	leaq	-1(%r8), %rax
	cmpq	$2, %rax
	jbe	.L797
	movq	%r8, %rdx
	movaps	%xmm0, %xmm1
	xorl	%eax, %eax
	shrq	$2, %rdx
	shufps	$0, %xmm1, %xmm1
	salq	$4, %rdx
.LVL953:
	.p2align 4,,10
	.p2align 3
.L780:
	.loc 1 30237 9 is_stmt 1 view .LVU3503
	.loc 1 30237 63 is_stmt 0 view .LVU3504
	movdqu	(%rsi,%rax), %xmm6
	cvtdq2ps	%xmm6, %xmm0
	mulps	%xmm1, %xmm0
	.loc 1 30237 32 view .LVU3505
	cvttps2dq	%xmm0, %xmm0
	.loc 1 30237 30 view .LVU3506
	movups	%xmm0, (%rdi,%rax)
	.loc 1 30236 5 is_stmt 1 view .LVU3507
	.loc 1 30236 31 view .LVU3508
	addq	$16, %rax
	cmpq	%rdx, %rax
	jne	.L780
	movq	%r8, %rax
	andq	$-4, %rax
	testb	$3, %r8b
	je	.L756
.LVL954:
	.loc 1 30237 9 view .LVU3509
	.loc 1 30237 63 is_stmt 0 view .LVU3510
	pxor	%xmm0, %xmm0
	cvtsi2ssl	(%rsi,%rax,4), %xmm0
	mulss	%xmm2, %xmm0
	.loc 1 30237 32 view .LVU3511
	cvttss2sil	%xmm0, %edx
	movl	%edx, (%rdi,%rax,4)
	.loc 1 30236 5 is_stmt 1 view .LVU3512
	.loc 1 30236 54 is_stmt 0 view .LVU3513
	leaq	1(%rax), %rdx
.LVL955:
	.loc 1 30236 31 is_stmt 1 view .LVU3514
	cmpq	%rdx, %r8
	jbe	.L756
	.loc 1 30237 9 view .LVU3515
	.loc 1 30237 63 is_stmt 0 view .LVU3516
	pxor	%xmm0, %xmm0
	.loc 1 30236 54 view .LVU3517
	addq	$2, %rax
	.loc 1 30237 63 view .LVU3518
	cvtsi2ssl	(%rsi,%rdx,4), %xmm0
	mulss	%xmm2, %xmm0
	.loc 1 30237 32 view .LVU3519
	cvttss2sil	%xmm0, %ecx
	movl	%ecx, (%rdi,%rdx,4)
	.loc 1 30236 5 is_stmt 1 view .LVU3520
.LVL956:
	.loc 1 30236 31 view .LVU3521
	cmpq	%rax, %r8
	jbe	.L756
	.loc 1 30237 9 view .LVU3522
	.loc 1 30237 63 is_stmt 0 view .LVU3523
	pxor	%xmm0, %xmm0
.LBE2065:
.LBE2064:
.LBE2070:
.LBE2073:
.LBE2061:
.LBE2060:
	.loc 1 30326 1 view .LVU3524
	popq	%rbp
	.cfi_remember_state
	.cfi_def_cfa 7, 8
.LBB2078:
.LBB2076:
.LBB2074:
.LBB2071:
.LBB2068:
.LBB2066:
	.loc 1 30237 63 view .LVU3525
	cvtsi2ssl	(%rsi,%rax,4), %xmm0
	mulss	%xmm2, %xmm0
	.loc 1 30237 32 view .LVU3526
	cvttss2sil	%xmm0, %edx
	movl	%edx, (%rdi,%rax,4)
	.loc 1 30236 5 is_stmt 1 view .LVU3527
	.loc 1 30236 31 view .LVU3528
.LBE2066:
.LBE2068:
.LBE2071:
.LBE2074:
.LBE2076:
.LBE2078:
	.loc 1 30326 1 is_stmt 0 view .LVU3529
	ret
.LVL957:
	.p2align 4,,10
	.p2align 3
.L849:
	.cfi_restore_state
.LBB2079:
.LBB2023:
.LBB2018:
.LBB2012:
	.loc 1 30259 35 is_stmt 1 view .LVU3530
	testq	%r8, %r8
	je	.L756
	leaq	4(%rsi), %rdx
.LVL958:
	.loc 1 30259 35 is_stmt 0 view .LVU3531
	movq	%rdi, %rax
	subq	%rdx, %rax
	cmpq	$8, %rax
	jbe	.L799
	leaq	-1(%r8), %rax
	cmpq	$2, %rax
	jbe	.L799
	movq	%r8, %rdx
	movaps	%xmm0, %xmm1
	xorl	%eax, %eax
	shrq	$2, %rdx
	shufps	$0, %xmm1, %xmm1
	salq	$4, %rdx
.LVL959:
	.p2align 4,,10
	.p2align 3
.L792:
	.loc 1 30260 13 is_stmt 1 view .LVU3532
	.loc 1 30260 56 is_stmt 0 view .LVU3533
	movups	(%rsi,%rax), %xmm0
	mulps	%xmm1, %xmm0
	.loc 1 30260 34 view .LVU3534
	movups	%xmm0, (%rdi,%rax)
	.loc 1 30259 9 is_stmt 1 view .LVU3535
	.loc 1 30259 35 view .LVU3536
	addq	$16, %rax
	cmpq	%rdx, %rax
	jne	.L792
	movq	%r8, %rax
	andq	$-4, %rax
	testb	$3, %r8b
	je	.L756
.LVL960:
	.loc 1 30260 13 view .LVU3537
	.loc 1 30260 56 is_stmt 0 view .LVU3538
	movss	(%rsi,%rax,4), %xmm0
	.loc 1 30259 58 view .LVU3539
	leaq	1(%rax), %rdx
	.loc 1 30260 56 view .LVU3540
	mulss	%xmm2, %xmm0
	.loc 1 30260 34 view .LVU3541
	movss	%xmm0, (%rdi,%rax,4)
	.loc 1 30259 9 is_stmt 1 view .LVU3542
.LVL961:
	.loc 1 30259 35 view .LVU3543
	cmpq	%rdx, %r8
	jbe	.L756
	.loc 1 30260 13 view .LVU3544
	.loc 1 30260 56 is_stmt 0 view .LVU3545
	movss	(%rsi,%rdx,4), %xmm0
	.loc 1 30259 58 view .LVU3546
	addq	$2, %rax
	.loc 1 30260 56 view .LVU3547
	mulss	%xmm2, %xmm0
	.loc 1 30260 34 view .LVU3548
	movss	%xmm0, (%rdi,%rdx,4)
	.loc 1 30259 9 is_stmt 1 view .LVU3549
.LVL962:
	.loc 1 30259 35 view .LVU3550
	cmpq	%rax, %r8
	jbe	.L756
	.loc 1 30260 13 view .LVU3551
	.loc 1 30260 56 is_stmt 0 view .LVU3552
	mulss	(%rsi,%rax,4), %xmm2
.LVL963:
	.loc 1 30260 56 view .LVU3553
.LBE2012:
.LBE2018:
.LBE2023:
.LBE2079:
	.loc 1 30326 1 view .LVU3554
	popq	%rbp
	.cfi_remember_state
	.cfi_def_cfa 7, 8
.LBB2080:
.LBB2024:
.LBB2019:
.LBB2013:
	.loc 1 30260 34 view .LVU3555
	movss	%xmm2, (%rdi,%rax,4)
	.loc 1 30259 9 is_stmt 1 view .LVU3556
	.loc 1 30259 35 view .LVU3557
.LBE2013:
.LBE2019:
.LBE2024:
.LBE2080:
	.loc 1 30326 1 is_stmt 0 view .LVU3558
	ret
.LVL964:
	.p2align 4,,10
	.p2align 3
.L795:
	.cfi_restore_state
.LBB2081:
.LBB2040:
.LBB2039:
.LBB2037:
.LBB2035:
.LBB2034:
	.loc 1 30185 18 view .LVU3559
	xorl	%eax, %eax
.LVL965:
	.p2align 4,,10
	.p2align 3
.L767:
	.loc 1 30186 9 is_stmt 1 view .LVU3560
	.loc 1 30186 61 is_stmt 0 view .LVU3561
	movzbl	(%rsi,%rax), %edx
	.loc 1 30186 63 view .LVU3562
	pxor	%xmm0, %xmm0
	cvtsi2ssl	%edx, %xmm0
	mulss	%xmm2, %xmm0
	.loc 1 30186 32 view .LVU3563
	cvttss2sil	%xmm0, %edx
	movb	%dl, (%rdi,%rax)
	.loc 1 30185 5 is_stmt 1 view .LVU3564
	.loc 1 30185 54 is_stmt 0 view .LVU3565
	addq	$1, %rax
.LVL966:
	.loc 1 30185 31 is_stmt 1 view .LVU3566
	cmpq	%rax, %r8
	jne	.L767
.LBE2034:
.LBE2035:
.LBE2037:
.LBE2039:
.LBE2040:
.LBE2081:
	.loc 1 30326 1 is_stmt 0 view .LVU3567
	popq	%rbp
	.cfi_remember_state
	.cfi_def_cfa 7, 8
	ret
.LVL967:
	.p2align 4,,10
	.p2align 3
.L797:
	.cfi_restore_state
.LBB2082:
.LBB2077:
.LBB2075:
.LBB2072:
.LBB2069:
.LBB2067:
	.loc 1 30236 18 view .LVU3568
	xorl	%eax, %eax
.LVL968:
	.p2align 4,,10
	.p2align 3
.L778:
	.loc 1 30237 9 is_stmt 1 view .LVU3569
	.loc 1 30237 63 is_stmt 0 view .LVU3570
	pxor	%xmm0, %xmm0
	cvtsi2ssl	(%rsi,%rax,4), %xmm0
	mulss	%xmm2, %xmm0
	.loc 1 30237 32 view .LVU3571
	cvttss2sil	%xmm0, %edx
	movl	%edx, (%rdi,%rax,4)
	.loc 1 30236 5 is_stmt 1 view .LVU3572
	.loc 1 30236 54 is_stmt 0 view .LVU3573
	addq	$1, %rax
.LVL969:
	.loc 1 30236 31 is_stmt 1 view .LVU3574
	cmpq	%rax, %r8
	jne	.L778
.LBE2067:
.LBE2069:
.LBE2072:
.LBE2075:
.LBE2077:
.LBE2082:
	.loc 1 30326 1 is_stmt 0 view .LVU3575
	popq	%rbp
	.cfi_remember_state
	.cfi_def_cfa 7, 8
	ret
.LVL970:
	.p2align 4,,10
	.p2align 3
.L796:
	.cfi_restore_state
.LBB2083:
.LBB2058:
.LBB2056:
.LBB2053:
.LBB2050:
.LBB2048:
	.loc 1 30198 18 view .LVU3576
	xorl	%eax, %eax
.LVL971:
	.p2align 4,,10
	.p2align 3
.L772:
	.loc 1 30199 9 is_stmt 1 view .LVU3577
	.loc 1 30199 63 is_stmt 0 view .LVU3578
	movswl	(%rsi,%rax,2), %edx
	pxor	%xmm0, %xmm0
	cvtsi2ssl	%edx, %xmm0
	mulss	%xmm2, %xmm0
	.loc 1 30199 32 view .LVU3579
	cvttss2sil	%xmm0, %edx
	movw	%dx, (%rdi,%rax,2)
	.loc 1 30198 5 is_stmt 1 view .LVU3580
	.loc 1 30198 54 is_stmt 0 view .LVU3581
	addq	$1, %rax
.LVL972:
	.loc 1 30198 31 is_stmt 1 view .LVU3582
	cmpq	%rax, %r8
	jne	.L772
.LBE2048:
.LBE2050:
.LBE2053:
.LBE2056:
.LBE2058:
.LBE2083:
	.loc 1 30326 1 is_stmt 0 view .LVU3583
	popq	%rbp
	.cfi_remember_state
	.cfi_def_cfa 7, 8
	ret
.LVL973:
.L799:
	.cfi_restore_state
.LBB2084:
.LBB2025:
.LBB2020:
.LBB2014:
	.loc 1 30259 22 view .LVU3584
	xorl	%eax, %eax
.LVL974:
	.p2align 4,,10
	.p2align 3
.L790:
	.loc 1 30260 13 is_stmt 1 view .LVU3585
	.loc 1 30260 56 is_stmt 0 view .LVU3586
	movss	(%rsi,%rax,4), %xmm0
	mulss	%xmm2, %xmm0
	.loc 1 30260 34 view .LVU3587
	movss	%xmm0, (%rdi,%rax,4)
	.loc 1 30259 9 is_stmt 1 view .LVU3588
	.loc 1 30259 58 is_stmt 0 view .LVU3589
	addq	$1, %rax
.LVL975:
	.loc 1 30259 35 is_stmt 1 view .LVU3590
	cmpq	%rax, %r8
	jne	.L790
.LBE2014:
.LBE2020:
.LBE2025:
.LBE2084:
	.loc 1 30326 1 is_stmt 0 view .LVU3591
	popq	%rbp
	.cfi_remember_state
	.cfi_def_cfa 7, 8
	ret
.LVL976:
.L798:
	.cfi_restore_state
.LBB2085:
.LBB2026:
.LBB2021:
.LBB2015:
.LBB2009:
.LBB2007:
	.loc 1 30254 26 view .LVU3592
	xorl	%eax, %eax
.LVL977:
	.p2align 4,,10
	.p2align 3
.L785:
	.loc 1 30255 17 is_stmt 1 view .LVU3593
	.loc 1 30255 58 is_stmt 0 view .LVU3594
	movss	(%rsi,%rax,4), %xmm0
	.loc 1 30255 38 view .LVU3595
	movss	%xmm0, (%rdi,%rax,4)
	.loc 1 30254 13 is_stmt 1 view .LVU3596
	.loc 1 30254 62 is_stmt 0 view .LVU3597
	addq	$1, %rax
.LVL978:
	.loc 1 30254 39 is_stmt 1 view .LVU3598
	cmpq	%rax, %r8
	jne	.L785
.LBE2007:
.LBE2009:
.LBE2015:
.LBE2021:
.LBE2026:
.LBE2085:
	.loc 1 30326 1 is_stmt 0 view .LVU3599
	popq	%rbp
	.cfi_def_cfa 7, 8
	ret
	.cfi_endproc
.LFE116:
	.size	ma_copy_and_apply_volume_factor_pcm_frames, .-ma_copy_and_apply_volume_factor_pcm_frames
	.section	.rodata.str1.8
	.align 8
.LC78:
	.string	"void ma_copy_and_apply_volume_and_clip_pcm_frames(void*, const void*, ma_uint64, ma_format, ma_uint32, float)"
	.section	.rodata.str1.1
.LC79:
	.string	"pDst != __null"
.LC80:
	.string	"pSrc != __null"
	.text
	.p2align 4
	.globl	ma_copy_and_apply_volume_and_clip_pcm_frames
	.hidden	ma_copy_and_apply_volume_and_clip_pcm_frames
	.type	ma_copy_and_apply_volume_and_clip_pcm_frames, @function
ma_copy_and_apply_volume_and_clip_pcm_frames:
.LVL979:
.LFB123:
	.loc 1 30481 1 is_stmt 1 view -0
	.cfi_startproc
	.loc 1 30481 1 is_stmt 0 view .LVU3601
	pushq	%rbp
	.cfi_def_cfa_offset 16
	.cfi_offset 6, -16
	movq	%rsp, %rbp
	.cfi_def_cfa_register 6
	pushq	%r13
	pushq	%r12
	pushq	%rbx
	subq	$40, %rsp
	.cfi_offset 13, -24
	.cfi_offset 12, -32
	.cfi_offset 3, -40
1:	call	mcount
	.loc 1 30481 1 view .LVU3602
	.loc 1 30482 5 is_stmt 1 view .LVU3603
	testq	%rdi, %rdi
	je	.L1045
	.loc 1 30483 5 view .LVU3604
	testq	%rsi, %rsi
	je	.L1046
	.loc 1 30485 5 view .LVU3605
.LBB2229:
	movss	.LC77(%rip), %xmm2
	comiss	%xmm2, %xmm0
	je	.L1047
.LBE2229:
	.loc 1 30487 12 view .LVU3606
.LBB2401:
.LBB2230:
	comiss	.LC5(%rip), %xmm0
	je	.L1048
.LVL980:
	.loc 1 30487 12 is_stmt 0 view .LVU3607
.LBE2230:
.LBE2401:
.LBB2402:
.LBI2402:
	.loc 1 30480 13 is_stmt 1 view .LVU3608
.LBB2403:
	.loc 1 30490 9 view .LVU3609
	.loc 1 30490 46 is_stmt 0 view .LVU3610
	movl	%r8d, %ebx
	.loc 1 30490 19 view .LVU3611
	imulq	%rdx, %rbx
.LVL981:
	.loc 1 30492 9 is_stmt 1 view .LVU3612
	cmpl	$5, %ecx
	ja	.L850
	movl	%ecx, %ecx
	.loc 1 30492 9 is_stmt 0 view .LVU3613
	jmp	*.L903(,%rcx,8)
	.section	.rodata
	.align 8
	.align 4
.L903:
	.quad	.L850
	.quad	.L907
	.quad	.L906
	.quad	.L905
	.quad	.L904
	.quad	.L902
	.text
.LVL982:
	.p2align 4,,10
	.p2align 3
.L1048:
	.loc 1 30492 9 view .LVU3614
.LBE2403:
.LBE2402:
.LBB2740:
.LBB2252:
	.loc 1 30488 9 is_stmt 1 view .LVU3615
.LBB2231:
.LBI2231:
	.loc 1 30066 13 view .LVU3616
.LBE2231:
.LBE2252:
.LBE2740:
	.loc 1 30068 5 view .LVU3617
.LBB2741:
.LBB2253:
.LBB2249:
.LBB2232:
	cmpl	$1, %ecx
	jne	.L900
.LBB2233:
	.loc 1 30069 9 view .LVU3618
	.loc 1 30069 46 is_stmt 0 view .LVU3619
	movl	%r8d, %r8d
.LVL983:
	.loc 1 30069 19 view .LVU3620
	imulq	%r8, %rdx
.LVL984:
	.loc 1 30070 9 is_stmt 1 view .LVU3621
	.loc 1 30071 9 view .LVU3622
	.loc 1 30071 35 view .LVU3623
	testq	%rdx, %rdx
	je	.L850
.LBE2233:
.LBE2232:
.LBE2249:
.LBE2253:
.LBE2741:
	.loc 1 30505 1 is_stmt 0 view .LVU3624
	addq	$40, %rsp
.LBB2742:
.LBB2254:
.LBB2250:
.LBB2236:
.LBB2234:
	.loc 1 30072 37 view .LVU3625
	movl	$128, %esi
.LVL985:
	.loc 1 30072 37 view .LVU3626
.LBE2234:
.LBE2236:
.LBE2250:
.LBE2254:
.LBE2742:
	.loc 1 30505 1 view .LVU3627
	popq	%rbx
	popq	%r12
	popq	%r13
	popq	%rbp
	.cfi_remember_state
	.cfi_def_cfa 7, 8
.LBB2743:
.LBB2255:
.LBB2251:
.LBB2237:
.LBB2235:
	.loc 1 30072 37 view .LVU3628
	jmp	memset
.LVL986:
	.p2align 4,,10
	.p2align 3
.L900:
	.cfi_restore_state
	.loc 1 30072 37 view .LVU3629
.LBE2235:
.LBE2237:
.LBB2238:
.LBI2238:
	.loc 1 30066 13 is_stmt 1 view .LVU3630
.LBB2239:
	.loc 1 30075 9 view .LVU3631
.LBB2240:
.LBI2240:
	.loc 2 2066 28 view .LVU3632
.LBB2241:
	.loc 2 2066 91 view .LVU3633
.LBB2242:
.LBI2242:
	.loc 1 44154 18 view .LVU3634
.LBB2243:
	.loc 1 44156 5 view .LVU3635
	.loc 1 44156 15 is_stmt 0 view .LVU3636
	movdqa	.LC22(%rip), %xmm0
.LVL987:
	.loc 1 44164 24 view .LVU3637
	movslq	%ecx, %rcx
.LVL988:
	.loc 1 44156 15 view .LVU3638
	movabsq	$17179869188, %rax
	movq	%rax, -48(%rbp)
	.loc 1 44164 5 is_stmt 1 view .LVU3639
.LVL989:
	.loc 1 44156 15 is_stmt 0 view .LVU3640
	movaps	%xmm0, -64(%rbp)
.LBE2243:
.LBE2242:
.LBE2241:
.LBE2240:
	.loc 1 30075 65 view .LVU3641
	imull	-64(%rbp,%rcx,4), %r8d
.LVL990:
	.loc 1 30075 26 view .LVU3642
	movq	%r8, %rbx
	imulq	%rdx, %rbx
.LVL991:
.LBB2244:
.LBI2244:
	.loc 1 1810 23 is_stmt 1 view .LVU3643
.LBB2245:
	.loc 1 1815 5 view .LVU3644
	.loc 1 1815 24 view .LVU3645
	testq	%rbx, %rbx
	je	.L850
	movl	$4294967295, %r13d
.LVL992:
	.p2align 4,,10
	.p2align 3
.L901:
.LBB2246:
	.loc 1 1816 9 view .LVU3646
	.loc 1 1817 9 view .LVU3647
	cmpq	%r13, %rbx
	movq	%r13, %r12
	cmovbe	%rbx, %r12
.LVL993:
.LBB2247:
.LBB2248:
	.loc 1 782 9 view .LVU3648
	.loc 1 782 15 is_stmt 0 view .LVU3649
	xorl	%esi, %esi
	movq	%r12, %rdx
	call	memset
.LVL994:
	.loc 1 782 15 view .LVU3650
	movq	%rax, %rdi
.LBE2248:
.LBE2247:
	.loc 1 1823 9 is_stmt 1 view .LVU3651
.LVL995:
	.loc 1 1824 9 view .LVU3652
	.loc 1 1824 13 is_stmt 0 view .LVU3653
	addq	%r12, %rdi
.LVL996:
	.loc 1 1824 13 view .LVU3654
.LBE2246:
	.loc 1 1815 5 is_stmt 1 view .LVU3655
	.loc 1 1815 24 view .LVU3656
	subq	%r12, %rbx
.LVL997:
